
bin\Debug\Project_AGV_2.1.elf:     file format elf32-avr

Sections:
Idx Name          Size      VMA       LMA       File off  Algn
  0 .data         00000000  00800200  00002b8e  00002c42  2**0
                  CONTENTS, ALLOC, LOAD, DATA
  1 .text         00002b8e  00000000  00000000  000000b4  2**1
                  CONTENTS, ALLOC, LOAD, READONLY, CODE
  2 .bss          00000020  00800200  00800200  00002c42  2**0
                  ALLOC
  3 .fuse         00000003  00820000  00820000  00002c42  2**0
                  CONTENTS, ALLOC, LOAD, DATA
  4 .comment      00000012  00000000  00000000  00002c45  2**0
                  CONTENTS, READONLY
  5 .note.gnu.avr.deviceinfo 00000040  00000000  00000000  00002c58  2**2
                  CONTENTS, READONLY, OCTETS
  6 .debug_aranges 00000158  00000000  00000000  00002c98  2**3
                  CONTENTS, READONLY, DEBUGGING, OCTETS
  7 .debug_info   000018c6  00000000  00000000  00002df0  2**0
                  CONTENTS, READONLY, DEBUGGING, OCTETS
  8 .debug_abbrev 00000f52  00000000  00000000  000046b6  2**0
                  CONTENTS, READONLY, DEBUGGING, OCTETS
  9 .debug_line   00001595  00000000  00000000  00005608  2**0
                  CONTENTS, READONLY, DEBUGGING, OCTETS
 10 .debug_frame  000004bc  00000000  00000000  00006ba0  2**2
                  CONTENTS, READONLY, DEBUGGING, OCTETS
 11 .debug_str    000006be  00000000  00000000  0000705c  2**0
                  CONTENTS, READONLY, DEBUGGING, OCTETS
 12 .debug_line_str 0000016b  00000000  00000000  0000771a  2**0
                  CONTENTS, READONLY, DEBUGGING, OCTETS

Disassembly of section .text:

00000000 <__vectors>:
       0:	0c 94 72 00 	jmp	0xe4	; 0xe4 <__ctors_end>
       4:	0c 94 86 00 	jmp	0x10c	; 0x10c <__bad_interrupt>
       8:	0c 94 86 00 	jmp	0x10c	; 0x10c <__bad_interrupt>
       c:	0c 94 86 00 	jmp	0x10c	; 0x10c <__bad_interrupt>
      10:	0c 94 86 00 	jmp	0x10c	; 0x10c <__bad_interrupt>
      14:	0c 94 86 00 	jmp	0x10c	; 0x10c <__bad_interrupt>
      18:	0c 94 86 00 	jmp	0x10c	; 0x10c <__bad_interrupt>
      1c:	0c 94 86 00 	jmp	0x10c	; 0x10c <__bad_interrupt>
      20:	0c 94 86 00 	jmp	0x10c	; 0x10c <__bad_interrupt>
      24:	0c 94 86 00 	jmp	0x10c	; 0x10c <__bad_interrupt>
      28:	0c 94 86 00 	jmp	0x10c	; 0x10c <__bad_interrupt>
      2c:	0c 94 86 00 	jmp	0x10c	; 0x10c <__bad_interrupt>
      30:	0c 94 86 00 	jmp	0x10c	; 0x10c <__bad_interrupt>
      34:	0c 94 86 00 	jmp	0x10c	; 0x10c <__bad_interrupt>
      38:	0c 94 86 00 	jmp	0x10c	; 0x10c <__bad_interrupt>
      3c:	0c 94 86 00 	jmp	0x10c	; 0x10c <__bad_interrupt>
      40:	0c 94 86 00 	jmp	0x10c	; 0x10c <__bad_interrupt>
      44:	0c 94 86 00 	jmp	0x10c	; 0x10c <__bad_interrupt>
      48:	0c 94 86 00 	jmp	0x10c	; 0x10c <__bad_interrupt>
      4c:	0c 94 86 00 	jmp	0x10c	; 0x10c <__bad_interrupt>
      50:	0c 94 86 00 	jmp	0x10c	; 0x10c <__bad_interrupt>
      54:	0c 94 86 00 	jmp	0x10c	; 0x10c <__bad_interrupt>
      58:	0c 94 86 00 	jmp	0x10c	; 0x10c <__bad_interrupt>
      5c:	0c 94 24 01 	jmp	0x248	; 0x248 <__vector_23>
      60:	0c 94 86 00 	jmp	0x10c	; 0x10c <__bad_interrupt>
      64:	0c 94 86 00 	jmp	0x10c	; 0x10c <__bad_interrupt>
      68:	0c 94 86 00 	jmp	0x10c	; 0x10c <__bad_interrupt>
      6c:	0c 94 86 00 	jmp	0x10c	; 0x10c <__bad_interrupt>
      70:	0c 94 86 00 	jmp	0x10c	; 0x10c <__bad_interrupt>
      74:	0c 94 86 00 	jmp	0x10c	; 0x10c <__bad_interrupt>
      78:	0c 94 86 00 	jmp	0x10c	; 0x10c <__bad_interrupt>
      7c:	0c 94 86 00 	jmp	0x10c	; 0x10c <__bad_interrupt>
      80:	0c 94 cd 01 	jmp	0x39a	; 0x39a <__vector_32>
      84:	0c 94 fd 01 	jmp	0x3fa	; 0x3fa <__vector_33>
      88:	0c 94 86 00 	jmp	0x10c	; 0x10c <__bad_interrupt>
      8c:	0c 94 5a 01 	jmp	0x2b4	; 0x2b4 <__vector_35>
      90:	0c 94 86 00 	jmp	0x10c	; 0x10c <__bad_interrupt>
      94:	0c 94 86 00 	jmp	0x10c	; 0x10c <__bad_interrupt>
      98:	0c 94 86 00 	jmp	0x10c	; 0x10c <__bad_interrupt>
      9c:	0c 94 86 00 	jmp	0x10c	; 0x10c <__bad_interrupt>
      a0:	0c 94 86 00 	jmp	0x10c	; 0x10c <__bad_interrupt>
      a4:	0c 94 86 00 	jmp	0x10c	; 0x10c <__bad_interrupt>
      a8:	0c 94 34 03 	jmp	0x668	; 0x668 <__vector_42>
      ac:	0c 94 64 03 	jmp	0x6c8	; 0x6c8 <__vector_43>
      b0:	0c 94 86 00 	jmp	0x10c	; 0x10c <__bad_interrupt>
      b4:	0c 94 c1 02 	jmp	0x582	; 0x582 <__vector_45>
      b8:	0c 94 86 00 	jmp	0x10c	; 0x10c <__bad_interrupt>
      bc:	0c 94 86 00 	jmp	0x10c	; 0x10c <__bad_interrupt>
      c0:	0c 94 86 00 	jmp	0x10c	; 0x10c <__bad_interrupt>
      c4:	0c 94 86 00 	jmp	0x10c	; 0x10c <__bad_interrupt>
      c8:	0c 94 86 00 	jmp	0x10c	; 0x10c <__bad_interrupt>
      cc:	0c 94 86 00 	jmp	0x10c	; 0x10c <__bad_interrupt>
      d0:	0c 94 86 00 	jmp	0x10c	; 0x10c <__bad_interrupt>
      d4:	0c 94 86 00 	jmp	0x10c	; 0x10c <__bad_interrupt>
      d8:	0c 94 86 00 	jmp	0x10c	; 0x10c <__bad_interrupt>
      dc:	0c 94 86 00 	jmp	0x10c	; 0x10c <__bad_interrupt>
      e0:	0c 94 86 00 	jmp	0x10c	; 0x10c <__bad_interrupt>

000000e4 <__ctors_end>:
      e4:	11 24       	eor	r1, r1
      e6:	1f be       	out	0x3f, r1	; 63
      e8:	cf ef       	ldi	r28, 0xFF	; 255
      ea:	d1 e2       	ldi	r29, 0x21	; 33
      ec:	de bf       	out	0x3e, r29	; 62
      ee:	cd bf       	out	0x3d, r28	; 61
      f0:	00 e0       	ldi	r16, 0x00	; 0
      f2:	0c bf       	out	0x3c, r16	; 60

000000f4 <__do_clear_bss>:
      f4:	22 e0       	ldi	r18, 0x02	; 2

000000f6 <.Loc.1>:
      f6:	a0 e0       	ldi	r26, 0x00	; 0

000000f8 <.Loc.2>:
      f8:	b2 e0       	ldi	r27, 0x02	; 2

000000fa <.Loc.3>:
      fa:	01 c0       	rjmp	.+2      	; 0xfe <.Loc.5>

000000fc <.Loc.4>:
      fc:	1d 92       	st	X+, r1

000000fe <.Loc.5>:
      fe:	a0 32       	cpi	r26, 0x20	; 32

00000100 <.Loc.6>:
     100:	b2 07       	cpc	r27, r18

00000102 <.Loc.7>:
     102:	e1 f7       	brne	.-8      	; 0xfc <.Loc.4>

00000104 <L0^A>:
     104:	0e 94 a5 13 	call	0x274a	; 0x274a <main>
     108:	0c 94 c5 15 	jmp	0x2b8a	; 0x2b8a <_exit>

0000010c <__bad_interrupt>:
     10c:	0c 94 00 00 	jmp	0	; 0x0 <__vectors>

00000110 <init_time>:
*/
#include <avr/io.h>
#include <avr/interrupt.h>
#include "clock.h"

void init_time(){
     110:	cf 93       	push	r28
     112:	df 93       	push	r29
     114:	cd b7       	in	r28, 0x3d	; 61
     116:	de b7       	in	r29, 0x3e	; 62

00000118 <.Loc.1>:
    cli();
     118:	f8 94       	cli

0000011a <.Loc.2>:
    TCCR0A = 0;
     11a:	84 e4       	ldi	r24, 0x44	; 68
     11c:	90 e0       	ldi	r25, 0x00	; 0

0000011e <.Loc.3>:
     11e:	fc 01       	movw	r30, r24
     120:	10 82       	st	Z, r1

00000122 <.Loc.4>:
    TCCR0B = 0;
     122:	85 e4       	ldi	r24, 0x45	; 69
     124:	90 e0       	ldi	r25, 0x00	; 0

00000126 <.Loc.5>:
     126:	fc 01       	movw	r30, r24
     128:	10 82       	st	Z, r1

0000012a <.Loc.6>:
    TCNT0 = 6;
     12a:	86 e4       	ldi	r24, 0x46	; 70
     12c:	90 e0       	ldi	r25, 0x00	; 0

0000012e <.Loc.7>:
     12e:	26 e0       	ldi	r18, 0x06	; 6
     130:	fc 01       	movw	r30, r24
     132:	20 83       	st	Z, r18

00000134 <.Loc.8>:
    TCCR0A |= (1 << WGM01);
     134:	84 e4       	ldi	r24, 0x44	; 68
     136:	90 e0       	ldi	r25, 0x00	; 0
     138:	fc 01       	movw	r30, r24
     13a:	20 81       	ld	r18, Z
     13c:	84 e4       	ldi	r24, 0x44	; 68
     13e:	90 e0       	ldi	r25, 0x00	; 0

00000140 <.Loc.9>:
     140:	22 60       	ori	r18, 0x02	; 2
     142:	fc 01       	movw	r30, r24
     144:	20 83       	st	Z, r18

00000146 <.Loc.10>:
    TCCR0B |= (1 << CS01) | (1 << CS00);//prescaler 64
     146:	85 e4       	ldi	r24, 0x45	; 69
     148:	90 e0       	ldi	r25, 0x00	; 0
     14a:	fc 01       	movw	r30, r24
     14c:	20 81       	ld	r18, Z
     14e:	85 e4       	ldi	r24, 0x45	; 69
     150:	90 e0       	ldi	r25, 0x00	; 0

00000152 <.Loc.11>:
     152:	23 60       	ori	r18, 0x03	; 3
     154:	fc 01       	movw	r30, r24
     156:	20 83       	st	Z, r18

00000158 <.Loc.12>:
    TIMSK0 |= (1 << TOIE0);
     158:	8e e6       	ldi	r24, 0x6E	; 110
     15a:	90 e0       	ldi	r25, 0x00	; 0
     15c:	fc 01       	movw	r30, r24
     15e:	20 81       	ld	r18, Z
     160:	8e e6       	ldi	r24, 0x6E	; 110
     162:	90 e0       	ldi	r25, 0x00	; 0

00000164 <.Loc.13>:
     164:	21 60       	ori	r18, 0x01	; 1
     166:	fc 01       	movw	r30, r24
     168:	20 83       	st	Z, r18

0000016a <.Loc.14>:
    sei();
     16a:	78 94       	sei

0000016c <.Loc.15>:
    //clock 0 defineren
    //interupt setpoint vaststellen
}
     16c:	00 00       	nop
     16e:	df 91       	pop	r29
     170:	cf 91       	pop	r28
     172:	08 95       	ret

00000174 <time_current_ms>:

int time_current_ms(int update){//0 = return, 1 = time++
     174:	8f 92       	push	r8
     176:	9f 92       	push	r9
     178:	af 92       	push	r10
     17a:	bf 92       	push	r11
     17c:	cf 92       	push	r12
     17e:	df 92       	push	r13
     180:	ef 92       	push	r14
     182:	ff 92       	push	r15
     184:	0f 93       	push	r16
     186:	1f 93       	push	r17
     188:	cf 93       	push	r28
     18a:	df 93       	push	r29
     18c:	0f 92       	push	r0
     18e:	0f 92       	push	r0
     190:	cd b7       	in	r28, 0x3d	; 61
     192:	de b7       	in	r29, 0x3e	; 62
     194:	9a 83       	std	Y+2, r25	; 0x02
     196:	89 83       	std	Y+1, r24	; 0x01

00000198 <.Loc.17>:
    static unsigned long long int time_ms = 0;
    if (update == 1){
     198:	89 81       	ldd	r24, Y+1	; 0x01
     19a:	9a 81       	ldd	r25, Y+2	; 0x02
     19c:	81 30       	cpi	r24, 0x01	; 1
     19e:	91 05       	cpc	r25, r1
     1a0:	99 f5       	brne	.+102    	; 0x208 <.L3>

000001a2 <.Loc.18>:
        time_ms++;
     1a2:	80 90 00 02 	lds	r8, 0x0200	; 0x800200 <time_ms.0>
     1a6:	90 90 01 02 	lds	r9, 0x0201	; 0x800201 <time_ms.0+0x1>
     1aa:	a0 90 02 02 	lds	r10, 0x0202	; 0x800202 <time_ms.0+0x2>
     1ae:	b0 90 03 02 	lds	r11, 0x0203	; 0x800203 <time_ms.0+0x3>
     1b2:	c0 90 04 02 	lds	r12, 0x0204	; 0x800204 <time_ms.0+0x4>
     1b6:	d0 90 05 02 	lds	r13, 0x0205	; 0x800205 <time_ms.0+0x5>
     1ba:	e0 90 06 02 	lds	r14, 0x0206	; 0x800206 <time_ms.0+0x6>
     1be:	f0 90 07 02 	lds	r15, 0x0207	; 0x800207 <time_ms.0+0x7>
     1c2:	28 2d       	mov	r18, r8
     1c4:	39 2d       	mov	r19, r9
     1c6:	4a 2d       	mov	r20, r10
     1c8:	5b 2d       	mov	r21, r11
     1ca:	6c 2d       	mov	r22, r12
     1cc:	7d 2d       	mov	r23, r13
     1ce:	8e 2d       	mov	r24, r14
     1d0:	9f 2d       	mov	r25, r15
     1d2:	a1 e0       	ldi	r26, 0x01	; 1
     1d4:	0e 94 cb 13 	call	0x2796	; 0x2796 <__adddi3_s8>
     1d8:	82 2e       	mov	r8, r18
     1da:	93 2e       	mov	r9, r19
     1dc:	a4 2e       	mov	r10, r20
     1de:	b5 2e       	mov	r11, r21
     1e0:	c6 2e       	mov	r12, r22
     1e2:	d7 2e       	mov	r13, r23
     1e4:	e8 2e       	mov	r14, r24
     1e6:	f9 2e       	mov	r15, r25
     1e8:	80 92 00 02 	sts	0x0200, r8	; 0x800200 <time_ms.0>
     1ec:	90 92 01 02 	sts	0x0201, r9	; 0x800201 <time_ms.0+0x1>
     1f0:	a0 92 02 02 	sts	0x0202, r10	; 0x800202 <time_ms.0+0x2>
     1f4:	b0 92 03 02 	sts	0x0203, r11	; 0x800203 <time_ms.0+0x3>
     1f8:	c0 92 04 02 	sts	0x0204, r12	; 0x800204 <time_ms.0+0x4>
     1fc:	d0 92 05 02 	sts	0x0205, r13	; 0x800205 <time_ms.0+0x5>
     200:	e0 92 06 02 	sts	0x0206, r14	; 0x800206 <time_ms.0+0x6>
     204:	f0 92 07 02 	sts	0x0207, r15	; 0x800207 <time_ms.0+0x7>

00000208 <.L3>:
    }
    return(time_ms);
     208:	00 91 00 02 	lds	r16, 0x0200	; 0x800200 <time_ms.0>
     20c:	10 91 01 02 	lds	r17, 0x0201	; 0x800201 <time_ms.0+0x1>
     210:	20 91 02 02 	lds	r18, 0x0202	; 0x800202 <time_ms.0+0x2>
     214:	30 91 03 02 	lds	r19, 0x0203	; 0x800203 <time_ms.0+0x3>
     218:	40 91 04 02 	lds	r20, 0x0204	; 0x800204 <time_ms.0+0x4>
     21c:	50 91 05 02 	lds	r21, 0x0205	; 0x800205 <time_ms.0+0x5>
     220:	60 91 06 02 	lds	r22, 0x0206	; 0x800206 <time_ms.0+0x6>
     224:	70 91 07 02 	lds	r23, 0x0207	; 0x800207 <time_ms.0+0x7>
     228:	c8 01       	movw	r24, r16

0000022a <.Loc.20>:
}
     22a:	0f 90       	pop	r0
     22c:	0f 90       	pop	r0
     22e:	df 91       	pop	r29
     230:	cf 91       	pop	r28
     232:	1f 91       	pop	r17
     234:	0f 91       	pop	r16
     236:	ff 90       	pop	r15
     238:	ef 90       	pop	r14
     23a:	df 90       	pop	r13
     23c:	cf 90       	pop	r12
     23e:	bf 90       	pop	r11
     240:	af 90       	pop	r10
     242:	9f 90       	pop	r9
     244:	8f 90       	pop	r8
     246:	08 95       	ret

00000248 <__vector_23>:

ISR(TIMER0_OVF_vect){
     248:	1f 92       	push	r1
     24a:	0f 92       	push	r0
     24c:	0f b6       	in	r0, 0x3f	; 63
     24e:	0f 92       	push	r0
     250:	11 24       	eor	r1, r1
     252:	0b b6       	in	r0, 0x3b	; 59
     254:	0f 92       	push	r0
     256:	2f 93       	push	r18
     258:	3f 93       	push	r19
     25a:	4f 93       	push	r20
     25c:	5f 93       	push	r21
     25e:	6f 93       	push	r22
     260:	7f 93       	push	r23
     262:	8f 93       	push	r24
     264:	9f 93       	push	r25
     266:	af 93       	push	r26
     268:	bf 93       	push	r27
     26a:	ef 93       	push	r30
     26c:	ff 93       	push	r31
     26e:	cf 93       	push	r28
     270:	df 93       	push	r29
     272:	cd b7       	in	r28, 0x3d	; 61
     274:	de b7       	in	r29, 0x3e	; 62

00000276 <.Loc.22>:
    TCNT0 = 6;
     276:	86 e4       	ldi	r24, 0x46	; 70
     278:	90 e0       	ldi	r25, 0x00	; 0

0000027a <.Loc.23>:
     27a:	26 e0       	ldi	r18, 0x06	; 6
     27c:	fc 01       	movw	r30, r24
     27e:	20 83       	st	Z, r18

00000280 <.Loc.24>:
    time_current_ms(1);
     280:	81 e0       	ldi	r24, 0x01	; 1
     282:	90 e0       	ldi	r25, 0x00	; 0
     284:	0e 94 ba 00 	call	0x174	; 0x174 <time_current_ms>

00000288 <.Loc.25>:
}
     288:	00 00       	nop
     28a:	df 91       	pop	r29
     28c:	cf 91       	pop	r28
     28e:	ff 91       	pop	r31
     290:	ef 91       	pop	r30
     292:	bf 91       	pop	r27
     294:	af 91       	pop	r26
     296:	9f 91       	pop	r25
     298:	8f 91       	pop	r24
     29a:	7f 91       	pop	r23
     29c:	6f 91       	pop	r22
     29e:	5f 91       	pop	r21
     2a0:	4f 91       	pop	r20
     2a2:	3f 91       	pop	r19
     2a4:	2f 91       	pop	r18
     2a6:	0f 90       	pop	r0
     2a8:	0b be       	out	0x3b, r0	; 59
     2aa:	0f 90       	pop	r0
     2ac:	0f be       	out	0x3f, r0	; 63
     2ae:	0f 90       	pop	r0
     2b0:	1f 90       	pop	r1
     2b2:	18 95       	reti

000002b4 <__vector_35>:
#include <avr/io.h>
#include <avr/interrupt.h>
#include "h_bridge_R.h"

ISR(TIMER3_OVF_vect)
{
     2b4:	1f 92       	push	r1
     2b6:	0f 92       	push	r0
     2b8:	0f b6       	in	r0, 0x3f	; 63
     2ba:	0f 92       	push	r0
     2bc:	11 24       	eor	r1, r1
     2be:	0b b6       	in	r0, 0x3b	; 59
     2c0:	0f 92       	push	r0
     2c2:	2f 93       	push	r18
     2c4:	8f 93       	push	r24
     2c6:	9f 93       	push	r25
     2c8:	ef 93       	push	r30
     2ca:	ff 93       	push	r31
     2cc:	cf 93       	push	r28
     2ce:	df 93       	push	r29
     2d0:	cd b7       	in	r28, 0x3d	; 61
     2d2:	de b7       	in	r29, 0x3e	; 62

000002d4 <.Loc.1>:
	if (OCR3A == 0 && OCR3B == 0)
     2d4:	88 e9       	ldi	r24, 0x98	; 152
     2d6:	90 e0       	ldi	r25, 0x00	; 0
     2d8:	fc 01       	movw	r30, r24
     2da:	80 81       	ld	r24, Z
     2dc:	91 81       	ldd	r25, Z+1	; 0x01

000002de <.Loc.2>:
     2de:	00 97       	sbiw	r24, 0x00	; 0
     2e0:	d1 f4       	brne	.+52     	; 0x316 <.L2>

000002e2 <.Loc.3>:
     2e2:	8a e9       	ldi	r24, 0x9A	; 154
     2e4:	90 e0       	ldi	r25, 0x00	; 0
     2e6:	fc 01       	movw	r30, r24
     2e8:	80 81       	ld	r24, Z
     2ea:	91 81       	ldd	r25, Z+1	; 0x01

000002ec <.Loc.4>:
     2ec:	00 97       	sbiw	r24, 0x00	; 0
     2ee:	99 f4       	brne	.+38     	; 0x316 <.L2>

000002f0 <.Loc.5>:
	{
		PORT_RPWM &= ~(1<<PIN_RPWM);
     2f0:	85 e2       	ldi	r24, 0x25	; 37
     2f2:	90 e0       	ldi	r25, 0x00	; 0
     2f4:	fc 01       	movw	r30, r24
     2f6:	20 81       	ld	r18, Z

000002f8 <.Loc.6>:
     2f8:	85 e2       	ldi	r24, 0x25	; 37
     2fa:	90 e0       	ldi	r25, 0x00	; 0

000002fc <.Loc.7>:
     2fc:	2f 7b       	andi	r18, 0xBF	; 191
     2fe:	fc 01       	movw	r30, r24
     300:	20 83       	st	Z, r18

00000302 <.Loc.8>:
		PORT_LPWM &= ~(1<<PIN_LPWM);
     302:	85 e2       	ldi	r24, 0x25	; 37
     304:	90 e0       	ldi	r25, 0x00	; 0
     306:	fc 01       	movw	r30, r24
     308:	20 81       	ld	r18, Z

0000030a <.Loc.9>:
     30a:	85 e2       	ldi	r24, 0x25	; 37
     30c:	90 e0       	ldi	r25, 0x00	; 0

0000030e <.Loc.10>:
     30e:	2f 77       	andi	r18, 0x7F	; 127
     310:	fc 01       	movw	r30, r24
     312:	20 83       	st	Z, r18

00000314 <.Loc.11>:
	else if (OCR3B != 0)
	{
		PORT_RPWM &= ~(1<<PIN_RPWM);
		PORT_LPWM |= (1<<PIN_LPWM);
	}
}
     314:	33 c0       	rjmp	.+102    	; 0x37c <.L5>

00000316 <.L2>:
	else if (OCR3A != 0)
     316:	88 e9       	ldi	r24, 0x98	; 152
     318:	90 e0       	ldi	r25, 0x00	; 0
     31a:	fc 01       	movw	r30, r24
     31c:	80 81       	ld	r24, Z
     31e:	91 81       	ldd	r25, Z+1	; 0x01

00000320 <.Loc.13>:
     320:	00 97       	sbiw	r24, 0x00	; 0
     322:	99 f0       	breq	.+38     	; 0x34a <.L4>

00000324 <.Loc.14>:
		PORT_LPWM &= ~(1<<PIN_LPWM);
     324:	85 e2       	ldi	r24, 0x25	; 37
     326:	90 e0       	ldi	r25, 0x00	; 0
     328:	fc 01       	movw	r30, r24
     32a:	20 81       	ld	r18, Z

0000032c <.Loc.15>:
     32c:	85 e2       	ldi	r24, 0x25	; 37
     32e:	90 e0       	ldi	r25, 0x00	; 0

00000330 <.Loc.16>:
     330:	2f 77       	andi	r18, 0x7F	; 127
     332:	fc 01       	movw	r30, r24
     334:	20 83       	st	Z, r18

00000336 <.Loc.17>:
		PORT_RPWM |= (1<<PIN_RPWM);
     336:	85 e2       	ldi	r24, 0x25	; 37
     338:	90 e0       	ldi	r25, 0x00	; 0
     33a:	fc 01       	movw	r30, r24
     33c:	20 81       	ld	r18, Z
     33e:	85 e2       	ldi	r24, 0x25	; 37
     340:	90 e0       	ldi	r25, 0x00	; 0

00000342 <.Loc.18>:
     342:	20 64       	ori	r18, 0x40	; 64
     344:	fc 01       	movw	r30, r24
     346:	20 83       	st	Z, r18

00000348 <.Loc.19>:
}
     348:	19 c0       	rjmp	.+50     	; 0x37c <.L5>

0000034a <.L4>:
	else if (OCR3B != 0)
     34a:	8a e9       	ldi	r24, 0x9A	; 154
     34c:	90 e0       	ldi	r25, 0x00	; 0
     34e:	fc 01       	movw	r30, r24
     350:	80 81       	ld	r24, Z
     352:	91 81       	ldd	r25, Z+1	; 0x01

00000354 <.Loc.21>:
     354:	00 97       	sbiw	r24, 0x00	; 0
     356:	91 f0       	breq	.+36     	; 0x37c <.L5>

00000358 <.Loc.22>:
		PORT_RPWM &= ~(1<<PIN_RPWM);
     358:	85 e2       	ldi	r24, 0x25	; 37
     35a:	90 e0       	ldi	r25, 0x00	; 0
     35c:	fc 01       	movw	r30, r24
     35e:	20 81       	ld	r18, Z

00000360 <.Loc.23>:
     360:	85 e2       	ldi	r24, 0x25	; 37
     362:	90 e0       	ldi	r25, 0x00	; 0

00000364 <.Loc.24>:
     364:	2f 7b       	andi	r18, 0xBF	; 191
     366:	fc 01       	movw	r30, r24
     368:	20 83       	st	Z, r18

0000036a <.Loc.25>:
		PORT_LPWM |= (1<<PIN_LPWM);
     36a:	85 e2       	ldi	r24, 0x25	; 37
     36c:	90 e0       	ldi	r25, 0x00	; 0
     36e:	fc 01       	movw	r30, r24
     370:	20 81       	ld	r18, Z
     372:	85 e2       	ldi	r24, 0x25	; 37
     374:	90 e0       	ldi	r25, 0x00	; 0

00000376 <.Loc.26>:
     376:	20 68       	ori	r18, 0x80	; 128
     378:	fc 01       	movw	r30, r24
     37a:	20 83       	st	Z, r18

0000037c <.L5>:
}
     37c:	00 00       	nop
     37e:	df 91       	pop	r29
     380:	cf 91       	pop	r28
     382:	ff 91       	pop	r31
     384:	ef 91       	pop	r30
     386:	9f 91       	pop	r25
     388:	8f 91       	pop	r24
     38a:	2f 91       	pop	r18
     38c:	0f 90       	pop	r0
     38e:	0b be       	out	0x3b, r0	; 59
     390:	0f 90       	pop	r0
     392:	0f be       	out	0x3f, r0	; 63
     394:	0f 90       	pop	r0
     396:	1f 90       	pop	r1
     398:	18 95       	reti

0000039a <__vector_32>:

ISR(TIMER3_COMPA_vect)
{
     39a:	1f 92       	push	r1
     39c:	0f 92       	push	r0
     39e:	0f b6       	in	r0, 0x3f	; 63
     3a0:	0f 92       	push	r0
     3a2:	11 24       	eor	r1, r1
     3a4:	0b b6       	in	r0, 0x3b	; 59
     3a6:	0f 92       	push	r0
     3a8:	2f 93       	push	r18
     3aa:	8f 93       	push	r24
     3ac:	9f 93       	push	r25
     3ae:	ef 93       	push	r30
     3b0:	ff 93       	push	r31
     3b2:	cf 93       	push	r28
     3b4:	df 93       	push	r29
     3b6:	cd b7       	in	r28, 0x3d	; 61
     3b8:	de b7       	in	r29, 0x3e	; 62

000003ba <.Loc.29>:
	if (OCR3A != 255)
     3ba:	88 e9       	ldi	r24, 0x98	; 152
     3bc:	90 e0       	ldi	r25, 0x00	; 0
     3be:	fc 01       	movw	r30, r24
     3c0:	80 81       	ld	r24, Z
     3c2:	91 81       	ldd	r25, Z+1	; 0x01

000003c4 <.Loc.30>:
     3c4:	8f 3f       	cpi	r24, 0xFF	; 255
     3c6:	91 05       	cpc	r25, r1
     3c8:	49 f0       	breq	.+18     	; 0x3dc <.L8>

000003ca <.Loc.31>:
	{
		PORT_RPWM &= ~(1<<PIN_RPWM);
     3ca:	85 e2       	ldi	r24, 0x25	; 37
     3cc:	90 e0       	ldi	r25, 0x00	; 0
     3ce:	fc 01       	movw	r30, r24
     3d0:	20 81       	ld	r18, Z

000003d2 <.Loc.32>:
     3d2:	85 e2       	ldi	r24, 0x25	; 37
     3d4:	90 e0       	ldi	r25, 0x00	; 0

000003d6 <.Loc.33>:
     3d6:	2f 7b       	andi	r18, 0xBF	; 191
     3d8:	fc 01       	movw	r30, r24
     3da:	20 83       	st	Z, r18

000003dc <.L8>:
	}
}
     3dc:	00 00       	nop
     3de:	df 91       	pop	r29
     3e0:	cf 91       	pop	r28
     3e2:	ff 91       	pop	r31
     3e4:	ef 91       	pop	r30
     3e6:	9f 91       	pop	r25
     3e8:	8f 91       	pop	r24
     3ea:	2f 91       	pop	r18
     3ec:	0f 90       	pop	r0
     3ee:	0b be       	out	0x3b, r0	; 59
     3f0:	0f 90       	pop	r0
     3f2:	0f be       	out	0x3f, r0	; 63
     3f4:	0f 90       	pop	r0
     3f6:	1f 90       	pop	r1
     3f8:	18 95       	reti

000003fa <__vector_33>:

ISR(TIMER3_COMPB_vect)
{
     3fa:	1f 92       	push	r1
     3fc:	0f 92       	push	r0
     3fe:	0f b6       	in	r0, 0x3f	; 63
     400:	0f 92       	push	r0
     402:	11 24       	eor	r1, r1
     404:	0b b6       	in	r0, 0x3b	; 59
     406:	0f 92       	push	r0
     408:	2f 93       	push	r18
     40a:	8f 93       	push	r24
     40c:	9f 93       	push	r25
     40e:	ef 93       	push	r30
     410:	ff 93       	push	r31
     412:	cf 93       	push	r28
     414:	df 93       	push	r29
     416:	cd b7       	in	r28, 0x3d	; 61
     418:	de b7       	in	r29, 0x3e	; 62

0000041a <.Loc.36>:
	if (OCR3B != 255)
     41a:	8a e9       	ldi	r24, 0x9A	; 154
     41c:	90 e0       	ldi	r25, 0x00	; 0
     41e:	fc 01       	movw	r30, r24
     420:	80 81       	ld	r24, Z
     422:	91 81       	ldd	r25, Z+1	; 0x01

00000424 <.Loc.37>:
     424:	8f 3f       	cpi	r24, 0xFF	; 255
     426:	91 05       	cpc	r25, r1
     428:	49 f0       	breq	.+18     	; 0x43c <.L11>

0000042a <.Loc.38>:
	{
		PORT_LPWM &= ~(1<<PIN_LPWM);
     42a:	85 e2       	ldi	r24, 0x25	; 37
     42c:	90 e0       	ldi	r25, 0x00	; 0
     42e:	fc 01       	movw	r30, r24
     430:	20 81       	ld	r18, Z

00000432 <.Loc.39>:
     432:	85 e2       	ldi	r24, 0x25	; 37
     434:	90 e0       	ldi	r25, 0x00	; 0

00000436 <.Loc.40>:
     436:	2f 77       	andi	r18, 0x7F	; 127
     438:	fc 01       	movw	r30, r24
     43a:	20 83       	st	Z, r18

0000043c <.L11>:
	}
}
     43c:	00 00       	nop
     43e:	df 91       	pop	r29
     440:	cf 91       	pop	r28
     442:	ff 91       	pop	r31
     444:	ef 91       	pop	r30
     446:	9f 91       	pop	r25
     448:	8f 91       	pop	r24
     44a:	2f 91       	pop	r18
     44c:	0f 90       	pop	r0
     44e:	0b be       	out	0x3b, r0	; 59
     450:	0f 90       	pop	r0
     452:	0f be       	out	0x3f, r0	; 63
     454:	0f 90       	pop	r0
     456:	1f 90       	pop	r1
     458:	18 95       	reti

0000045a <init_h_bridge_L>:

void init_h_bridge_L(void)
{
     45a:	cf 93       	push	r28
     45c:	df 93       	push	r29
     45e:	cd b7       	in	r28, 0x3d	; 61
     460:	de b7       	in	r29, 0x3e	; 62

00000462 <.Loc.43>:
	// Config pins as output
	DDR_RPWM |= (1<<PIN_RPWM);
     462:	84 e2       	ldi	r24, 0x24	; 36
     464:	90 e0       	ldi	r25, 0x00	; 0
     466:	fc 01       	movw	r30, r24
     468:	20 81       	ld	r18, Z
     46a:	84 e2       	ldi	r24, 0x24	; 36
     46c:	90 e0       	ldi	r25, 0x00	; 0

0000046e <.Loc.44>:
     46e:	20 64       	ori	r18, 0x40	; 64
     470:	fc 01       	movw	r30, r24
     472:	20 83       	st	Z, r18

00000474 <.Loc.45>:
	DDR_LPWM |= (1<<PIN_LPWM);
     474:	84 e2       	ldi	r24, 0x24	; 36
     476:	90 e0       	ldi	r25, 0x00	; 0
     478:	fc 01       	movw	r30, r24
     47a:	20 81       	ld	r18, Z
     47c:	84 e2       	ldi	r24, 0x24	; 36
     47e:	90 e0       	ldi	r25, 0x00	; 0

00000480 <.Loc.46>:
     480:	20 68       	ori	r18, 0x80	; 128
     482:	fc 01       	movw	r30, r24
     484:	20 83       	st	Z, r18

00000486 <.Loc.47>:

	// Output low
	PORT_RPWM &= ~(1<<PIN_RPWM);
     486:	85 e2       	ldi	r24, 0x25	; 37
     488:	90 e0       	ldi	r25, 0x00	; 0
     48a:	fc 01       	movw	r30, r24
     48c:	20 81       	ld	r18, Z

0000048e <.Loc.48>:
     48e:	85 e2       	ldi	r24, 0x25	; 37
     490:	90 e0       	ldi	r25, 0x00	; 0

00000492 <.Loc.49>:
     492:	2f 7b       	andi	r18, 0xBF	; 191
     494:	fc 01       	movw	r30, r24
     496:	20 83       	st	Z, r18

00000498 <.Loc.50>:
	PORT_LPWM &= ~(1<<PIN_LPWM);
     498:	85 e2       	ldi	r24, 0x25	; 37
     49a:	90 e0       	ldi	r25, 0x00	; 0
     49c:	fc 01       	movw	r30, r24
     49e:	20 81       	ld	r18, Z

000004a0 <.Loc.51>:
     4a0:	85 e2       	ldi	r24, 0x25	; 37
     4a2:	90 e0       	ldi	r25, 0x00	; 0

000004a4 <.Loc.52>:
     4a4:	2f 77       	andi	r18, 0x7F	; 127
     4a6:	fc 01       	movw	r30, r24
     4a8:	20 83       	st	Z, r18

000004aa <.Loc.53>:

	// Use mode 0, clkdiv = 64
	TCCR3A = 0;
     4aa:	80 e9       	ldi	r24, 0x90	; 144
     4ac:	90 e0       	ldi	r25, 0x00	; 0

000004ae <.Loc.54>:
     4ae:	fc 01       	movw	r30, r24
     4b0:	10 82       	st	Z, r1

000004b2 <.Loc.55>:
	TCCR3B = (0<<CS32) | (1<<CS31) | (1<<CS30);
     4b2:	81 e9       	ldi	r24, 0x91	; 145
     4b4:	90 e0       	ldi	r25, 0x00	; 0

000004b6 <.Loc.56>:
     4b6:	23 e0       	ldi	r18, 0x03	; 3
     4b8:	fc 01       	movw	r30, r24
     4ba:	20 83       	st	Z, r18

000004bc <.Loc.57>:

	// Disable PWM output
	OCR3A = 0;
     4bc:	88 e9       	ldi	r24, 0x98	; 152
     4be:	90 e0       	ldi	r25, 0x00	; 0

000004c0 <.Loc.58>:
     4c0:	fc 01       	movw	r30, r24
     4c2:	11 82       	std	Z+1, r1	; 0x01
     4c4:	10 82       	st	Z, r1

000004c6 <.Loc.59>:
	OCR3B = 0;
     4c6:	8a e9       	ldi	r24, 0x9A	; 154
     4c8:	90 e0       	ldi	r25, 0x00	; 0

000004ca <.Loc.60>:
     4ca:	fc 01       	movw	r30, r24
     4cc:	11 82       	std	Z+1, r1	; 0x01
     4ce:	10 82       	st	Z, r1

000004d0 <.Loc.61>:

	// Interrupts on OCA, OCB and OVF
	TIMSK3 = (1<<OCIE3B) | (1<<OCIE3A) | (1<<TOIE3);
     4d0:	81 e7       	ldi	r24, 0x71	; 113
     4d2:	90 e0       	ldi	r25, 0x00	; 0

000004d4 <.Loc.62>:
     4d4:	27 e0       	ldi	r18, 0x07	; 7
     4d6:	fc 01       	movw	r30, r24
     4d8:	20 83       	st	Z, r18

000004da <.Loc.63>:

	sei();
     4da:	78 94       	sei

000004dc <.Loc.64>:
}
     4dc:	00 00       	nop
     4de:	df 91       	pop	r29
     4e0:	cf 91       	pop	r28
     4e2:	08 95       	ret

000004e4 <h_bridge_set_percentage_L>:

void h_bridge_set_percentage_L(signed char percentage)
{
     4e4:	cf 93       	push	r28
     4e6:	df 93       	push	r29
     4e8:	0f 92       	push	r0
     4ea:	cd b7       	in	r28, 0x3d	; 61
     4ec:	de b7       	in	r29, 0x3e	; 62
     4ee:	89 83       	std	Y+1, r24	; 0x01

000004f0 <.Loc.66>:
	if (percentage >= -100 && percentage <= 100)
     4f0:	89 81       	ldd	r24, Y+1	; 0x01
     4f2:	8c 39       	cpi	r24, 0x9C	; 156
     4f4:	0c f4       	brge	.+2      	; 0x4f8 <.Loc.67>

000004f6 <L0^A>:
     4f6:	40 c0       	rjmp	.+128    	; 0x578 <.L16>

000004f8 <.Loc.67>:
     4f8:	89 81       	ldd	r24, Y+1	; 0x01
     4fa:	84 36       	cpi	r24, 0x64	; 100
     4fc:	09 f0       	breq	.+2      	; 0x500 <.Loc.68>

000004fe <L0^A>:
     4fe:	e4 f5       	brge	.+120    	; 0x578 <.L16>

00000500 <.Loc.68>:
	{
		if (percentage >= 0)
     500:	89 81       	ldd	r24, Y+1	; 0x01
     502:	88 23       	and	r24, r24
     504:	ec f0       	brlt	.+58     	; 0x540 <.L15>

00000506 <.Loc.69>:
		{
			// Disable LPWM, calculate RPWM
			OCR3B = 0;
     506:	8a e9       	ldi	r24, 0x9A	; 154
     508:	90 e0       	ldi	r25, 0x00	; 0

0000050a <.Loc.70>:
     50a:	fc 01       	movw	r30, r24
     50c:	11 82       	std	Z+1, r1	; 0x01
     50e:	10 82       	st	Z, r1

00000510 <.Loc.71>:
			OCR3A = (255*percentage)/100;
     510:	89 81       	ldd	r24, Y+1	; 0x01
     512:	08 2e       	mov	r0, r24
     514:	00 0c       	add	r0, r0
     516:	99 0b       	sbc	r25, r25
     518:	2f ef       	ldi	r18, 0xFF	; 255
     51a:	28 9f       	mul	r18, r24
     51c:	a0 01       	movw	r20, r0
     51e:	29 9f       	mul	r18, r25
     520:	50 0d       	add	r21, r0
     522:	11 24       	eor	r1, r1

00000524 <.Loc.72>:
     524:	24 e6       	ldi	r18, 0x64	; 100
     526:	30 e0       	ldi	r19, 0x00	; 0
     528:	ca 01       	movw	r24, r20
     52a:	b9 01       	movw	r22, r18
     52c:	0e 94 b7 13 	call	0x276e	; 0x276e <__divmodhi4>
     530:	cb 01       	movw	r24, r22
     532:	9c 01       	movw	r18, r24

00000534 <.Loc.73>:
     534:	88 e9       	ldi	r24, 0x98	; 152
     536:	90 e0       	ldi	r25, 0x00	; 0

00000538 <.Loc.74>:
     538:	fc 01       	movw	r30, r24
     53a:	31 83       	std	Z+1, r19	; 0x01
     53c:	20 83       	st	Z, r18

0000053e <.Loc.75>:
			// Disable RPWM, calculate LPWM
			OCR3A = 0;
			OCR3B = (255*percentage)/-100;
		}
	}
}
     53e:	1c c0       	rjmp	.+56     	; 0x578 <.L16>

00000540 <.L15>:
			OCR3A = 0;
     540:	88 e9       	ldi	r24, 0x98	; 152
     542:	90 e0       	ldi	r25, 0x00	; 0

00000544 <.Loc.77>:
     544:	fc 01       	movw	r30, r24
     546:	11 82       	std	Z+1, r1	; 0x01
     548:	10 82       	st	Z, r1

0000054a <.Loc.78>:
			OCR3B = (255*percentage)/-100;
     54a:	89 81       	ldd	r24, Y+1	; 0x01
     54c:	08 2e       	mov	r0, r24
     54e:	00 0c       	add	r0, r0
     550:	99 0b       	sbc	r25, r25
     552:	2f ef       	ldi	r18, 0xFF	; 255
     554:	28 9f       	mul	r18, r24
     556:	a0 01       	movw	r20, r0
     558:	29 9f       	mul	r18, r25
     55a:	50 0d       	add	r21, r0
     55c:	11 24       	eor	r1, r1

0000055e <.Loc.79>:
     55e:	2c e9       	ldi	r18, 0x9C	; 156
     560:	3f ef       	ldi	r19, 0xFF	; 255
     562:	ca 01       	movw	r24, r20
     564:	b9 01       	movw	r22, r18
     566:	0e 94 b7 13 	call	0x276e	; 0x276e <__divmodhi4>
     56a:	cb 01       	movw	r24, r22
     56c:	9c 01       	movw	r18, r24

0000056e <.Loc.80>:
     56e:	8a e9       	ldi	r24, 0x9A	; 154
     570:	90 e0       	ldi	r25, 0x00	; 0

00000572 <.Loc.81>:
     572:	fc 01       	movw	r30, r24
     574:	31 83       	std	Z+1, r19	; 0x01
     576:	20 83       	st	Z, r18

00000578 <.L16>:
}
     578:	00 00       	nop
     57a:	0f 90       	pop	r0
     57c:	df 91       	pop	r29
     57e:	cf 91       	pop	r28
     580:	08 95       	ret

00000582 <__vector_45>:
#include <avr/io.h>
#include <avr/interrupt.h>
#include "h_bridge_L.h"

ISR(TIMER4_OVF_vect)
{
     582:	1f 92       	push	r1
     584:	0f 92       	push	r0
     586:	0f b6       	in	r0, 0x3f	; 63
     588:	0f 92       	push	r0
     58a:	11 24       	eor	r1, r1
     58c:	0b b6       	in	r0, 0x3b	; 59
     58e:	0f 92       	push	r0
     590:	2f 93       	push	r18
     592:	8f 93       	push	r24
     594:	9f 93       	push	r25
     596:	ef 93       	push	r30
     598:	ff 93       	push	r31
     59a:	cf 93       	push	r28
     59c:	df 93       	push	r29
     59e:	cd b7       	in	r28, 0x3d	; 61
     5a0:	de b7       	in	r29, 0x3e	; 62

000005a2 <.Loc.1>:
	if (OCR4A == 0 && OCR4B == 0)
     5a2:	88 ea       	ldi	r24, 0xA8	; 168
     5a4:	90 e0       	ldi	r25, 0x00	; 0
     5a6:	fc 01       	movw	r30, r24
     5a8:	80 81       	ld	r24, Z
     5aa:	91 81       	ldd	r25, Z+1	; 0x01

000005ac <.Loc.2>:
     5ac:	00 97       	sbiw	r24, 0x00	; 0
     5ae:	d1 f4       	brne	.+52     	; 0x5e4 <.L2>

000005b0 <.Loc.3>:
     5b0:	8a ea       	ldi	r24, 0xAA	; 170
     5b2:	90 e0       	ldi	r25, 0x00	; 0
     5b4:	fc 01       	movw	r30, r24
     5b6:	80 81       	ld	r24, Z
     5b8:	91 81       	ldd	r25, Z+1	; 0x01

000005ba <.Loc.4>:
     5ba:	00 97       	sbiw	r24, 0x00	; 0
     5bc:	99 f4       	brne	.+38     	; 0x5e4 <.L2>

000005be <.Loc.5>:
	{
		PORT_RPWM &= ~(1<<PIN_RPWM);
     5be:	82 e0       	ldi	r24, 0x02	; 2
     5c0:	91 e0       	ldi	r25, 0x01	; 1
     5c2:	fc 01       	movw	r30, r24
     5c4:	20 81       	ld	r18, Z

000005c6 <.Loc.6>:
     5c6:	82 e0       	ldi	r24, 0x02	; 2
     5c8:	91 e0       	ldi	r25, 0x01	; 1

000005ca <.Loc.7>:
     5ca:	2f 7b       	andi	r18, 0xBF	; 191
     5cc:	fc 01       	movw	r30, r24
     5ce:	20 83       	st	Z, r18

000005d0 <.Loc.8>:
		PORT_LPWM &= ~(1<<PIN_LPWM);
     5d0:	8e e2       	ldi	r24, 0x2E	; 46
     5d2:	90 e0       	ldi	r25, 0x00	; 0
     5d4:	fc 01       	movw	r30, r24
     5d6:	20 81       	ld	r18, Z

000005d8 <.Loc.9>:
     5d8:	8e e2       	ldi	r24, 0x2E	; 46
     5da:	90 e0       	ldi	r25, 0x00	; 0

000005dc <.Loc.10>:
     5dc:	2f 7e       	andi	r18, 0xEF	; 239
     5de:	fc 01       	movw	r30, r24
     5e0:	20 83       	st	Z, r18

000005e2 <.Loc.11>:
	else if (OCR4B != 0)
	{
		PORT_RPWM &= ~(1<<PIN_RPWM);
		PORT_LPWM |= (1<<PIN_LPWM);
	}
}
     5e2:	33 c0       	rjmp	.+102    	; 0x64a <.L5>

000005e4 <.L2>:
	else if (OCR4A != 0)
     5e4:	88 ea       	ldi	r24, 0xA8	; 168
     5e6:	90 e0       	ldi	r25, 0x00	; 0
     5e8:	fc 01       	movw	r30, r24
     5ea:	80 81       	ld	r24, Z
     5ec:	91 81       	ldd	r25, Z+1	; 0x01

000005ee <.Loc.13>:
     5ee:	00 97       	sbiw	r24, 0x00	; 0
     5f0:	99 f0       	breq	.+38     	; 0x618 <.L4>

000005f2 <.Loc.14>:
		PORT_LPWM &= ~(1<<PIN_LPWM);
     5f2:	8e e2       	ldi	r24, 0x2E	; 46
     5f4:	90 e0       	ldi	r25, 0x00	; 0
     5f6:	fc 01       	movw	r30, r24
     5f8:	20 81       	ld	r18, Z

000005fa <.Loc.15>:
     5fa:	8e e2       	ldi	r24, 0x2E	; 46
     5fc:	90 e0       	ldi	r25, 0x00	; 0

000005fe <.Loc.16>:
     5fe:	2f 7e       	andi	r18, 0xEF	; 239
     600:	fc 01       	movw	r30, r24
     602:	20 83       	st	Z, r18

00000604 <.Loc.17>:
		PORT_RPWM |= (1<<PIN_RPWM);
     604:	82 e0       	ldi	r24, 0x02	; 2
     606:	91 e0       	ldi	r25, 0x01	; 1
     608:	fc 01       	movw	r30, r24
     60a:	20 81       	ld	r18, Z
     60c:	82 e0       	ldi	r24, 0x02	; 2
     60e:	91 e0       	ldi	r25, 0x01	; 1

00000610 <.Loc.18>:
     610:	20 64       	ori	r18, 0x40	; 64
     612:	fc 01       	movw	r30, r24
     614:	20 83       	st	Z, r18

00000616 <.Loc.19>:
}
     616:	19 c0       	rjmp	.+50     	; 0x64a <.L5>

00000618 <.L4>:
	else if (OCR4B != 0)
     618:	8a ea       	ldi	r24, 0xAA	; 170
     61a:	90 e0       	ldi	r25, 0x00	; 0
     61c:	fc 01       	movw	r30, r24
     61e:	80 81       	ld	r24, Z
     620:	91 81       	ldd	r25, Z+1	; 0x01

00000622 <.Loc.21>:
     622:	00 97       	sbiw	r24, 0x00	; 0
     624:	91 f0       	breq	.+36     	; 0x64a <.L5>

00000626 <.Loc.22>:
		PORT_RPWM &= ~(1<<PIN_RPWM);
     626:	82 e0       	ldi	r24, 0x02	; 2
     628:	91 e0       	ldi	r25, 0x01	; 1
     62a:	fc 01       	movw	r30, r24
     62c:	20 81       	ld	r18, Z

0000062e <.Loc.23>:
     62e:	82 e0       	ldi	r24, 0x02	; 2
     630:	91 e0       	ldi	r25, 0x01	; 1

00000632 <.Loc.24>:
     632:	2f 7b       	andi	r18, 0xBF	; 191
     634:	fc 01       	movw	r30, r24
     636:	20 83       	st	Z, r18

00000638 <.Loc.25>:
		PORT_LPWM |= (1<<PIN_LPWM);
     638:	8e e2       	ldi	r24, 0x2E	; 46
     63a:	90 e0       	ldi	r25, 0x00	; 0
     63c:	fc 01       	movw	r30, r24
     63e:	20 81       	ld	r18, Z
     640:	8e e2       	ldi	r24, 0x2E	; 46
     642:	90 e0       	ldi	r25, 0x00	; 0

00000644 <.Loc.26>:
     644:	20 61       	ori	r18, 0x10	; 16
     646:	fc 01       	movw	r30, r24
     648:	20 83       	st	Z, r18

0000064a <.L5>:
}
     64a:	00 00       	nop
     64c:	df 91       	pop	r29
     64e:	cf 91       	pop	r28
     650:	ff 91       	pop	r31
     652:	ef 91       	pop	r30
     654:	9f 91       	pop	r25
     656:	8f 91       	pop	r24
     658:	2f 91       	pop	r18
     65a:	0f 90       	pop	r0
     65c:	0b be       	out	0x3b, r0	; 59
     65e:	0f 90       	pop	r0
     660:	0f be       	out	0x3f, r0	; 63
     662:	0f 90       	pop	r0
     664:	1f 90       	pop	r1
     666:	18 95       	reti

00000668 <__vector_42>:

ISR(TIMER4_COMPA_vect)
{
     668:	1f 92       	push	r1
     66a:	0f 92       	push	r0
     66c:	0f b6       	in	r0, 0x3f	; 63
     66e:	0f 92       	push	r0
     670:	11 24       	eor	r1, r1
     672:	0b b6       	in	r0, 0x3b	; 59
     674:	0f 92       	push	r0
     676:	2f 93       	push	r18
     678:	8f 93       	push	r24
     67a:	9f 93       	push	r25
     67c:	ef 93       	push	r30
     67e:	ff 93       	push	r31
     680:	cf 93       	push	r28
     682:	df 93       	push	r29
     684:	cd b7       	in	r28, 0x3d	; 61
     686:	de b7       	in	r29, 0x3e	; 62

00000688 <.Loc.29>:
	if (OCR4A != 255)
     688:	88 ea       	ldi	r24, 0xA8	; 168
     68a:	90 e0       	ldi	r25, 0x00	; 0
     68c:	fc 01       	movw	r30, r24
     68e:	80 81       	ld	r24, Z
     690:	91 81       	ldd	r25, Z+1	; 0x01

00000692 <.Loc.30>:
     692:	8f 3f       	cpi	r24, 0xFF	; 255
     694:	91 05       	cpc	r25, r1
     696:	49 f0       	breq	.+18     	; 0x6aa <.L8>

00000698 <.Loc.31>:
	{
		PORT_RPWM &= ~(1<<PIN_RPWM);
     698:	82 e0       	ldi	r24, 0x02	; 2
     69a:	91 e0       	ldi	r25, 0x01	; 1
     69c:	fc 01       	movw	r30, r24
     69e:	20 81       	ld	r18, Z

000006a0 <.Loc.32>:
     6a0:	82 e0       	ldi	r24, 0x02	; 2
     6a2:	91 e0       	ldi	r25, 0x01	; 1

000006a4 <.Loc.33>:
     6a4:	2f 7b       	andi	r18, 0xBF	; 191
     6a6:	fc 01       	movw	r30, r24
     6a8:	20 83       	st	Z, r18

000006aa <.L8>:
	}
}
     6aa:	00 00       	nop
     6ac:	df 91       	pop	r29
     6ae:	cf 91       	pop	r28
     6b0:	ff 91       	pop	r31
     6b2:	ef 91       	pop	r30
     6b4:	9f 91       	pop	r25
     6b6:	8f 91       	pop	r24
     6b8:	2f 91       	pop	r18
     6ba:	0f 90       	pop	r0
     6bc:	0b be       	out	0x3b, r0	; 59
     6be:	0f 90       	pop	r0
     6c0:	0f be       	out	0x3f, r0	; 63
     6c2:	0f 90       	pop	r0
     6c4:	1f 90       	pop	r1
     6c6:	18 95       	reti

000006c8 <__vector_43>:

ISR(TIMER4_COMPB_vect)
{
     6c8:	1f 92       	push	r1
     6ca:	0f 92       	push	r0
     6cc:	0f b6       	in	r0, 0x3f	; 63
     6ce:	0f 92       	push	r0
     6d0:	11 24       	eor	r1, r1
     6d2:	0b b6       	in	r0, 0x3b	; 59
     6d4:	0f 92       	push	r0
     6d6:	2f 93       	push	r18
     6d8:	8f 93       	push	r24
     6da:	9f 93       	push	r25
     6dc:	ef 93       	push	r30
     6de:	ff 93       	push	r31
     6e0:	cf 93       	push	r28
     6e2:	df 93       	push	r29
     6e4:	cd b7       	in	r28, 0x3d	; 61
     6e6:	de b7       	in	r29, 0x3e	; 62

000006e8 <.Loc.36>:
	if (OCR4B != 255)
     6e8:	8a ea       	ldi	r24, 0xAA	; 170
     6ea:	90 e0       	ldi	r25, 0x00	; 0
     6ec:	fc 01       	movw	r30, r24
     6ee:	80 81       	ld	r24, Z
     6f0:	91 81       	ldd	r25, Z+1	; 0x01

000006f2 <.Loc.37>:
     6f2:	8f 3f       	cpi	r24, 0xFF	; 255
     6f4:	91 05       	cpc	r25, r1
     6f6:	49 f0       	breq	.+18     	; 0x70a <.L11>

000006f8 <.Loc.38>:
	{
		PORT_LPWM &= ~(1<<PIN_LPWM);
     6f8:	8e e2       	ldi	r24, 0x2E	; 46
     6fa:	90 e0       	ldi	r25, 0x00	; 0
     6fc:	fc 01       	movw	r30, r24
     6fe:	20 81       	ld	r18, Z

00000700 <.Loc.39>:
     700:	8e e2       	ldi	r24, 0x2E	; 46
     702:	90 e0       	ldi	r25, 0x00	; 0

00000704 <.Loc.40>:
     704:	2f 7e       	andi	r18, 0xEF	; 239
     706:	fc 01       	movw	r30, r24
     708:	20 83       	st	Z, r18

0000070a <.L11>:
	}
}
     70a:	00 00       	nop
     70c:	df 91       	pop	r29
     70e:	cf 91       	pop	r28
     710:	ff 91       	pop	r31
     712:	ef 91       	pop	r30
     714:	9f 91       	pop	r25
     716:	8f 91       	pop	r24
     718:	2f 91       	pop	r18
     71a:	0f 90       	pop	r0
     71c:	0b be       	out	0x3b, r0	; 59
     71e:	0f 90       	pop	r0
     720:	0f be       	out	0x3f, r0	; 63
     722:	0f 90       	pop	r0
     724:	1f 90       	pop	r1
     726:	18 95       	reti

00000728 <init_h_bridge_R>:

void init_h_bridge_R(void)
{
     728:	cf 93       	push	r28
     72a:	df 93       	push	r29
     72c:	cd b7       	in	r28, 0x3d	; 61
     72e:	de b7       	in	r29, 0x3e	; 62

00000730 <.Loc.43>:
	// Config pins as output
	DDR_RPWM |= (1<<PIN_RPWM);
     730:	81 e0       	ldi	r24, 0x01	; 1
     732:	91 e0       	ldi	r25, 0x01	; 1
     734:	fc 01       	movw	r30, r24
     736:	20 81       	ld	r18, Z
     738:	81 e0       	ldi	r24, 0x01	; 1
     73a:	91 e0       	ldi	r25, 0x01	; 1

0000073c <.Loc.44>:
     73c:	20 64       	ori	r18, 0x40	; 64
     73e:	fc 01       	movw	r30, r24
     740:	20 83       	st	Z, r18

00000742 <.Loc.45>:
	DDR_LPWM |= (1<<PIN_LPWM);
     742:	8d e2       	ldi	r24, 0x2D	; 45
     744:	90 e0       	ldi	r25, 0x00	; 0
     746:	fc 01       	movw	r30, r24
     748:	20 81       	ld	r18, Z
     74a:	8d e2       	ldi	r24, 0x2D	; 45
     74c:	90 e0       	ldi	r25, 0x00	; 0

0000074e <.Loc.46>:
     74e:	20 61       	ori	r18, 0x10	; 16
     750:	fc 01       	movw	r30, r24
     752:	20 83       	st	Z, r18

00000754 <.Loc.47>:

	// Output low
	PORT_RPWM &= ~(1<<PIN_RPWM);
     754:	82 e0       	ldi	r24, 0x02	; 2
     756:	91 e0       	ldi	r25, 0x01	; 1
     758:	fc 01       	movw	r30, r24
     75a:	20 81       	ld	r18, Z

0000075c <.Loc.48>:
     75c:	82 e0       	ldi	r24, 0x02	; 2
     75e:	91 e0       	ldi	r25, 0x01	; 1

00000760 <.Loc.49>:
     760:	2f 7b       	andi	r18, 0xBF	; 191
     762:	fc 01       	movw	r30, r24
     764:	20 83       	st	Z, r18

00000766 <.Loc.50>:
	PORT_LPWM &= ~(1<<PIN_LPWM);
     766:	8e e2       	ldi	r24, 0x2E	; 46
     768:	90 e0       	ldi	r25, 0x00	; 0
     76a:	fc 01       	movw	r30, r24
     76c:	20 81       	ld	r18, Z

0000076e <.Loc.51>:
     76e:	8e e2       	ldi	r24, 0x2E	; 46
     770:	90 e0       	ldi	r25, 0x00	; 0

00000772 <.Loc.52>:
     772:	2f 7e       	andi	r18, 0xEF	; 239
     774:	fc 01       	movw	r30, r24
     776:	20 83       	st	Z, r18

00000778 <.Loc.53>:

	// Use mode 0, clkdiv = 64
	TCCR4A = 0;
     778:	80 ea       	ldi	r24, 0xA0	; 160
     77a:	90 e0       	ldi	r25, 0x00	; 0

0000077c <.Loc.54>:
     77c:	fc 01       	movw	r30, r24
     77e:	10 82       	st	Z, r1

00000780 <.Loc.55>:
	TCCR4B = (0<<CS42) | (1<<CS41) | (1<<CS40);
     780:	81 ea       	ldi	r24, 0xA1	; 161
     782:	90 e0       	ldi	r25, 0x00	; 0

00000784 <.Loc.56>:
     784:	23 e0       	ldi	r18, 0x03	; 3
     786:	fc 01       	movw	r30, r24
     788:	20 83       	st	Z, r18

0000078a <.Loc.57>:

	// Disable PWM output
	OCR4A = 0;
     78a:	88 ea       	ldi	r24, 0xA8	; 168
     78c:	90 e0       	ldi	r25, 0x00	; 0

0000078e <.Loc.58>:
     78e:	fc 01       	movw	r30, r24
     790:	11 82       	std	Z+1, r1	; 0x01
     792:	10 82       	st	Z, r1

00000794 <.Loc.59>:
	OCR4B = 0;
     794:	8a ea       	ldi	r24, 0xAA	; 170
     796:	90 e0       	ldi	r25, 0x00	; 0

00000798 <.Loc.60>:
     798:	fc 01       	movw	r30, r24
     79a:	11 82       	std	Z+1, r1	; 0x01
     79c:	10 82       	st	Z, r1

0000079e <.Loc.61>:

	// Interrupts on OCA, OCB and OVF
	TIMSK4 = (1<<OCIE4B) | (1<<OCIE4A) | (1<<TOIE4);
     79e:	82 e7       	ldi	r24, 0x72	; 114
     7a0:	90 e0       	ldi	r25, 0x00	; 0

000007a2 <.Loc.62>:
     7a2:	27 e0       	ldi	r18, 0x07	; 7
     7a4:	fc 01       	movw	r30, r24
     7a6:	20 83       	st	Z, r18

000007a8 <.Loc.63>:

	sei();
     7a8:	78 94       	sei

000007aa <.Loc.64>:
}
     7aa:	00 00       	nop
     7ac:	df 91       	pop	r29
     7ae:	cf 91       	pop	r28
     7b0:	08 95       	ret

000007b2 <h_bridge_set_percentage_R>:

void h_bridge_set_percentage_R(signed char percentage)
{
     7b2:	cf 93       	push	r28
     7b4:	df 93       	push	r29
     7b6:	0f 92       	push	r0
     7b8:	cd b7       	in	r28, 0x3d	; 61
     7ba:	de b7       	in	r29, 0x3e	; 62
     7bc:	89 83       	std	Y+1, r24	; 0x01

000007be <.Loc.66>:
	if (percentage >= -100 && percentage <= 100)
     7be:	89 81       	ldd	r24, Y+1	; 0x01
     7c0:	8c 39       	cpi	r24, 0x9C	; 156
     7c2:	0c f4       	brge	.+2      	; 0x7c6 <.Loc.67>

000007c4 <L0^A>:
     7c4:	40 c0       	rjmp	.+128    	; 0x846 <.L16>

000007c6 <.Loc.67>:
     7c6:	89 81       	ldd	r24, Y+1	; 0x01
     7c8:	84 36       	cpi	r24, 0x64	; 100
     7ca:	09 f0       	breq	.+2      	; 0x7ce <.Loc.68>

000007cc <L0^A>:
     7cc:	e4 f5       	brge	.+120    	; 0x846 <.L16>

000007ce <.Loc.68>:
	{
		if (percentage >= 0)
     7ce:	89 81       	ldd	r24, Y+1	; 0x01
     7d0:	88 23       	and	r24, r24
     7d2:	ec f0       	brlt	.+58     	; 0x80e <.L15>

000007d4 <.Loc.69>:
		{
			// Disable LPWM, calculate RPWM
			OCR4B = 0;
     7d4:	8a ea       	ldi	r24, 0xAA	; 170
     7d6:	90 e0       	ldi	r25, 0x00	; 0

000007d8 <.Loc.70>:
     7d8:	fc 01       	movw	r30, r24
     7da:	11 82       	std	Z+1, r1	; 0x01
     7dc:	10 82       	st	Z, r1

000007de <.Loc.71>:
			OCR4A = (255*percentage)/100;
     7de:	89 81       	ldd	r24, Y+1	; 0x01
     7e0:	08 2e       	mov	r0, r24
     7e2:	00 0c       	add	r0, r0
     7e4:	99 0b       	sbc	r25, r25
     7e6:	2f ef       	ldi	r18, 0xFF	; 255
     7e8:	28 9f       	mul	r18, r24
     7ea:	a0 01       	movw	r20, r0
     7ec:	29 9f       	mul	r18, r25
     7ee:	50 0d       	add	r21, r0
     7f0:	11 24       	eor	r1, r1

000007f2 <.Loc.72>:
     7f2:	24 e6       	ldi	r18, 0x64	; 100
     7f4:	30 e0       	ldi	r19, 0x00	; 0
     7f6:	ca 01       	movw	r24, r20
     7f8:	b9 01       	movw	r22, r18
     7fa:	0e 94 b7 13 	call	0x276e	; 0x276e <__divmodhi4>
     7fe:	cb 01       	movw	r24, r22
     800:	9c 01       	movw	r18, r24

00000802 <.Loc.73>:
     802:	88 ea       	ldi	r24, 0xA8	; 168
     804:	90 e0       	ldi	r25, 0x00	; 0

00000806 <.Loc.74>:
     806:	fc 01       	movw	r30, r24
     808:	31 83       	std	Z+1, r19	; 0x01
     80a:	20 83       	st	Z, r18

0000080c <.Loc.75>:
			// Disable RPWM, calculate LPWM
			OCR4A = 0;
			OCR4B = (255*percentage)/-100;
		}
	}
}
     80c:	1c c0       	rjmp	.+56     	; 0x846 <.L16>

0000080e <.L15>:
			OCR4A = 0;
     80e:	88 ea       	ldi	r24, 0xA8	; 168
     810:	90 e0       	ldi	r25, 0x00	; 0

00000812 <.Loc.77>:
     812:	fc 01       	movw	r30, r24
     814:	11 82       	std	Z+1, r1	; 0x01
     816:	10 82       	st	Z, r1

00000818 <.Loc.78>:
			OCR4B = (255*percentage)/-100;
     818:	89 81       	ldd	r24, Y+1	; 0x01
     81a:	08 2e       	mov	r0, r24
     81c:	00 0c       	add	r0, r0
     81e:	99 0b       	sbc	r25, r25
     820:	2f ef       	ldi	r18, 0xFF	; 255
     822:	28 9f       	mul	r18, r24
     824:	a0 01       	movw	r20, r0
     826:	29 9f       	mul	r18, r25
     828:	50 0d       	add	r21, r0
     82a:	11 24       	eor	r1, r1

0000082c <.Loc.79>:
     82c:	2c e9       	ldi	r18, 0x9C	; 156
     82e:	3f ef       	ldi	r19, 0xFF	; 255
     830:	ca 01       	movw	r24, r20
     832:	b9 01       	movw	r22, r18
     834:	0e 94 b7 13 	call	0x276e	; 0x276e <__divmodhi4>
     838:	cb 01       	movw	r24, r22
     83a:	9c 01       	movw	r18, r24

0000083c <.Loc.80>:
     83c:	8a ea       	ldi	r24, 0xAA	; 170
     83e:	90 e0       	ldi	r25, 0x00	; 0

00000840 <.Loc.81>:
     840:	fc 01       	movw	r30, r24
     842:	31 83       	std	Z+1, r19	; 0x01
     844:	20 83       	st	Z, r18

00000846 <.L16>:
}
     846:	00 00       	nop
     848:	0f 90       	pop	r0
     84a:	df 91       	pop	r29
     84c:	cf 91       	pop	r28
     84e:	08 95       	ret

00000850 <LED_setup>:
long distance_R;
long distance_L;
unsigned long long int boom_timer = 0;

void LED_setup ()
{
     850:	cf 93       	push	r28
     852:	df 93       	push	r29
     854:	cd b7       	in	r28, 0x3d	; 61
     856:	de b7       	in	r29, 0x3e	; 62

00000858 <.Loc.1>:
    DDRB |= (1<<LED);
     858:	84 e2       	ldi	r24, 0x24	; 36
     85a:	90 e0       	ldi	r25, 0x00	; 0
     85c:	fc 01       	movw	r30, r24
     85e:	20 81       	ld	r18, Z
     860:	84 e2       	ldi	r24, 0x24	; 36
     862:	90 e0       	ldi	r25, 0x00	; 0

00000864 <.Loc.2>:
     864:	22 60       	ori	r18, 0x02	; 2
     866:	fc 01       	movw	r30, r24
     868:	20 83       	st	Z, r18

0000086a <.Loc.3>:
    PORTB |= (1<<LED);
     86a:	85 e2       	ldi	r24, 0x25	; 37
     86c:	90 e0       	ldi	r25, 0x00	; 0
     86e:	fc 01       	movw	r30, r24
     870:	20 81       	ld	r18, Z
     872:	85 e2       	ldi	r24, 0x25	; 37
     874:	90 e0       	ldi	r25, 0x00	; 0

00000876 <.Loc.4>:
     876:	22 60       	ori	r18, 0x02	; 2
     878:	fc 01       	movw	r30, r24
     87a:	20 83       	st	Z, r18

0000087c <.Loc.5>:
}
     87c:	00 00       	nop
     87e:	df 91       	pop	r29
     880:	cf 91       	pop	r28
     882:	08 95       	ret

00000884 <us_setup>:
void us_setup()
{
     884:	cf 93       	push	r28
     886:	df 93       	push	r29
     888:	cd b7       	in	r28, 0x3d	; 61
     88a:	de b7       	in	r29, 0x3e	; 62

0000088c <.Loc.7>:
    DDRL |= (1 << USV_TRIGGER);
     88c:	8a e0       	ldi	r24, 0x0A	; 10
     88e:	91 e0       	ldi	r25, 0x01	; 1
     890:	fc 01       	movw	r30, r24
     892:	20 81       	ld	r18, Z
     894:	8a e0       	ldi	r24, 0x0A	; 10
     896:	91 e0       	ldi	r25, 0x01	; 1

00000898 <.Loc.8>:
     898:	28 60       	ori	r18, 0x08	; 8
     89a:	fc 01       	movw	r30, r24
     89c:	20 83       	st	Z, r18

0000089e <.Loc.9>:
    DDRL &= ~(1 << USV_ECHO);
     89e:	8a e0       	ldi	r24, 0x0A	; 10
     8a0:	91 e0       	ldi	r25, 0x01	; 1
     8a2:	fc 01       	movw	r30, r24
     8a4:	20 81       	ld	r18, Z

000008a6 <.Loc.10>:
     8a6:	8a e0       	ldi	r24, 0x0A	; 10
     8a8:	91 e0       	ldi	r25, 0x01	; 1

000008aa <.Loc.11>:
     8aa:	2f 7e       	andi	r18, 0xEF	; 239
     8ac:	fc 01       	movw	r30, r24
     8ae:	20 83       	st	Z, r18

000008b0 <.Loc.12>:
    DDRB |= (1 << USR_TRIGGER);
     8b0:	84 e2       	ldi	r24, 0x24	; 36
     8b2:	90 e0       	ldi	r25, 0x00	; 0
     8b4:	fc 01       	movw	r30, r24
     8b6:	20 81       	ld	r18, Z
     8b8:	84 e2       	ldi	r24, 0x24	; 36
     8ba:	90 e0       	ldi	r25, 0x00	; 0

000008bc <.Loc.13>:
     8bc:	20 64       	ori	r18, 0x40	; 64
     8be:	fc 01       	movw	r30, r24
     8c0:	20 83       	st	Z, r18

000008c2 <.Loc.14>:
    DDRB &= ~(1 << USR_ECHO);
     8c2:	84 e2       	ldi	r24, 0x24	; 36
     8c4:	90 e0       	ldi	r25, 0x00	; 0
     8c6:	fc 01       	movw	r30, r24
     8c8:	20 81       	ld	r18, Z

000008ca <.Loc.15>:
     8ca:	84 e2       	ldi	r24, 0x24	; 36
     8cc:	90 e0       	ldi	r25, 0x00	; 0

000008ce <.Loc.16>:
     8ce:	2f 77       	andi	r18, 0x7F	; 127
     8d0:	fc 01       	movw	r30, r24
     8d2:	20 83       	st	Z, r18

000008d4 <.Loc.17>:
    DDRB |= (1 << USL_TRIGGER);
     8d4:	84 e2       	ldi	r24, 0x24	; 36
     8d6:	90 e0       	ldi	r25, 0x00	; 0
     8d8:	fc 01       	movw	r30, r24
     8da:	20 81       	ld	r18, Z
     8dc:	84 e2       	ldi	r24, 0x24	; 36
     8de:	90 e0       	ldi	r25, 0x00	; 0

000008e0 <.Loc.18>:
     8e0:	20 61       	ori	r18, 0x10	; 16
     8e2:	fc 01       	movw	r30, r24
     8e4:	20 83       	st	Z, r18

000008e6 <.Loc.19>:
    DDRB &= ~(1 << USL_ECHO);
     8e6:	84 e2       	ldi	r24, 0x24	; 36
     8e8:	90 e0       	ldi	r25, 0x00	; 0
     8ea:	fc 01       	movw	r30, r24
     8ec:	20 81       	ld	r18, Z

000008ee <.Loc.20>:
     8ee:	84 e2       	ldi	r24, 0x24	; 36
     8f0:	90 e0       	ldi	r25, 0x00	; 0

000008f2 <.Loc.21>:
     8f2:	2f 7d       	andi	r18, 0xDF	; 223
     8f4:	fc 01       	movw	r30, r24
     8f6:	20 83       	st	Z, r18

000008f8 <.Loc.22>:
}
     8f8:	00 00       	nop
     8fa:	df 91       	pop	r29
     8fc:	cf 91       	pop	r28
     8fe:	08 95       	ret

00000900 <usv_loop>:

void usv_loop()
{
     900:	0f 93       	push	r16
     902:	1f 93       	push	r17
     904:	cf 93       	push	r28
     906:	df 93       	push	r29
     908:	cd b7       	in	r28, 0x3d	; 61
     90a:	de b7       	in	r29, 0x3e	; 62
     90c:	ce 5c       	subi	r28, 0xCE	; 206
     90e:	d1 09       	sbc	r29, r1
     910:	0f b6       	in	r0, 0x3f	; 63
     912:	f8 94       	cli
     914:	de bf       	out	0x3e, r29	; 62
     916:	0f be       	out	0x3f, r0	; 63
     918:	cd bf       	out	0x3d, r28	; 61

0000091a <.Loc.24>:
    PORTD |= (1 << USV_TRIGGER);
     91a:	8b e2       	ldi	r24, 0x2B	; 43
     91c:	90 e0       	ldi	r25, 0x00	; 0
     91e:	dc 01       	movw	r26, r24
     920:	2c 91       	ld	r18, X
     922:	8b e2       	ldi	r24, 0x2B	; 43
     924:	90 e0       	ldi	r25, 0x00	; 0

00000926 <.Loc.25>:
     926:	28 60       	ori	r18, 0x08	; 8
     928:	fc 01       	movw	r30, r24
     92a:	20 83       	st	Z, r18
     92c:	80 e0       	ldi	r24, 0x00	; 0
     92e:	90 e0       	ldi	r25, 0x00	; 0
     930:	a0 e2       	ldi	r26, 0x20	; 32
     932:	b1 e4       	ldi	r27, 0x41	; 65
     934:	89 83       	std	Y+1, r24	; 0x01
     936:	9a 83       	std	Y+2, r25	; 0x02
     938:	ab 83       	std	Y+3, r26	; 0x03
     93a:	bc 83       	std	Y+4, r27	; 0x04

0000093c <.LBB113>:
	__builtin_avr_delay_cycles(__ticks_dc);

#else
	uint8_t __ticks;
	double __tmp2 ;
	__tmp = ((F_CPU) / 3e6) * __us;
     93c:	2b ea       	ldi	r18, 0xAB	; 171
     93e:	3a ea       	ldi	r19, 0xAA	; 170
     940:	4a ea       	ldi	r20, 0xAA	; 170
     942:	50 e4       	ldi	r21, 0x40	; 64
     944:	69 81       	ldd	r22, Y+1	; 0x01
     946:	7a 81       	ldd	r23, Y+2	; 0x02
     948:	8b 81       	ldd	r24, Y+3	; 0x03
     94a:	9c 81       	ldd	r25, Y+4	; 0x04
     94c:	0e 94 58 15 	call	0x2ab0	; 0x2ab0 <__mulsf3>
     950:	e3 96       	adiw	r28, 0x33	; 51
     952:	6c af       	std	Y+60, r22	; 0x3c
     954:	7d af       	std	Y+61, r23	; 0x3d
     956:	8e af       	std	Y+62, r24	; 0x3e
     958:	9f af       	std	Y+63, r25	; 0x3f
     95a:	e3 97       	sbiw	r28, 0x33	; 51
     95c:	e3 96       	adiw	r28, 0x33	; 51
     95e:	8c ad       	ldd	r24, Y+60	; 0x3c
     960:	9d ad       	ldd	r25, Y+61	; 0x3d
     962:	ae ad       	ldd	r26, Y+62	; 0x3e
     964:	bf ad       	ldd	r27, Y+63	; 0x3f
     966:	e3 97       	sbiw	r28, 0x33	; 51
     968:	8d 83       	std	Y+5, r24	; 0x05
     96a:	9e 83       	std	Y+6, r25	; 0x06
     96c:	af 83       	std	Y+7, r26	; 0x07
     96e:	b8 87       	std	Y+8, r27	; 0x08

00000970 <.Loc.27>:
	__tmp2 = ((F_CPU) / 4e6) * __us;
     970:	20 e0       	ldi	r18, 0x00	; 0
     972:	30 e0       	ldi	r19, 0x00	; 0
     974:	40 e8       	ldi	r20, 0x80	; 128
     976:	50 e4       	ldi	r21, 0x40	; 64
     978:	69 81       	ldd	r22, Y+1	; 0x01
     97a:	7a 81       	ldd	r23, Y+2	; 0x02
     97c:	8b 81       	ldd	r24, Y+3	; 0x03
     97e:	9c 81       	ldd	r25, Y+4	; 0x04
     980:	0e 94 58 15 	call	0x2ab0	; 0x2ab0 <__mulsf3>
     984:	e7 96       	adiw	r28, 0x37	; 55
     986:	6c af       	std	Y+60, r22	; 0x3c
     988:	7d af       	std	Y+61, r23	; 0x3d
     98a:	8e af       	std	Y+62, r24	; 0x3e
     98c:	9f af       	std	Y+63, r25	; 0x3f
     98e:	e7 97       	sbiw	r28, 0x37	; 55
     990:	e7 96       	adiw	r28, 0x37	; 55
     992:	8c ad       	ldd	r24, Y+60	; 0x3c
     994:	9d ad       	ldd	r25, Y+61	; 0x3d
     996:	ae ad       	ldd	r26, Y+62	; 0x3e
     998:	bf ad       	ldd	r27, Y+63	; 0x3f
     99a:	e7 97       	sbiw	r28, 0x37	; 55
     99c:	89 87       	std	Y+9, r24	; 0x09
     99e:	9a 87       	std	Y+10, r25	; 0x0a
     9a0:	ab 87       	std	Y+11, r26	; 0x0b
     9a2:	bc 87       	std	Y+12, r27	; 0x0c

000009a4 <.Loc.28>:
	if (__tmp < 1.0)
     9a4:	20 e0       	ldi	r18, 0x00	; 0
     9a6:	30 e0       	ldi	r19, 0x00	; 0
     9a8:	40 e8       	ldi	r20, 0x80	; 128
     9aa:	5f e3       	ldi	r21, 0x3F	; 63
     9ac:	6d 81       	ldd	r22, Y+5	; 0x05
     9ae:	7e 81       	ldd	r23, Y+6	; 0x06
     9b0:	8f 81       	ldd	r24, Y+7	; 0x07
     9b2:	98 85       	ldd	r25, Y+8	; 0x08
     9b4:	0e 94 f4 13 	call	0x27e8	; 0x27e8 <__cmpsf2>
     9b8:	88 23       	and	r24, r24
     9ba:	1c f4       	brge	.+6      	; 0x9c2 <.L59>

000009bc <.Loc.29>:
		__ticks = 1;
     9bc:	81 e0       	ldi	r24, 0x01	; 1
     9be:	8d 87       	std	Y+13, r24	; 0x0d
     9c0:	13 c1       	rjmp	.+550    	; 0xbe8 <.L6>

000009c2 <.L59>:
	else if (__tmp2 > 65535)
     9c2:	20 e0       	ldi	r18, 0x00	; 0
     9c4:	3f ef       	ldi	r19, 0xFF	; 255
     9c6:	4f e7       	ldi	r20, 0x7F	; 127
     9c8:	57 e4       	ldi	r21, 0x47	; 71
     9ca:	69 85       	ldd	r22, Y+9	; 0x09
     9cc:	7a 85       	ldd	r23, Y+10	; 0x0a
     9ce:	8b 85       	ldd	r24, Y+11	; 0x0b
     9d0:	9c 85       	ldd	r25, Y+12	; 0x0c
     9d2:	0e 94 53 15 	call	0x2aa6	; 0x2aa6 <__gesf2>
     9d6:	88 23       	and	r24, r24
     9d8:	09 f0       	breq	.+2      	; 0x9dc <L0^A>

000009da <L0^A>:
     9da:	0c f4       	brge	.+2      	; 0x9de <.Loc.31>

000009dc <L0^A>:
     9dc:	c2 c0       	rjmp	.+388    	; 0xb62 <.L60>

000009de <.Loc.31>:
	{
		_delay_ms(__us / 1000.0);
     9de:	20 e0       	ldi	r18, 0x00	; 0
     9e0:	30 e0       	ldi	r19, 0x00	; 0
     9e2:	4a e7       	ldi	r20, 0x7A	; 122
     9e4:	54 e4       	ldi	r21, 0x44	; 68
     9e6:	69 81       	ldd	r22, Y+1	; 0x01
     9e8:	7a 81       	ldd	r23, Y+2	; 0x02
     9ea:	8b 81       	ldd	r24, Y+3	; 0x03
     9ec:	9c 81       	ldd	r25, Y+4	; 0x04
     9ee:	0e 94 f9 13 	call	0x27f2	; 0x27f2 <__divsf3>
     9f2:	eb 96       	adiw	r28, 0x3b	; 59
     9f4:	6c af       	std	Y+60, r22	; 0x3c
     9f6:	7d af       	std	Y+61, r23	; 0x3d
     9f8:	8e af       	std	Y+62, r24	; 0x3e
     9fa:	9f af       	std	Y+63, r25	; 0x3f
     9fc:	eb 97       	sbiw	r28, 0x3b	; 59
     9fe:	eb 96       	adiw	r28, 0x3b	; 59
     a00:	8c ad       	ldd	r24, Y+60	; 0x3c
     a02:	9d ad       	ldd	r25, Y+61	; 0x3d
     a04:	ae ad       	ldd	r26, Y+62	; 0x3e
     a06:	bf ad       	ldd	r27, Y+63	; 0x3f
     a08:	eb 97       	sbiw	r28, 0x3b	; 59
     a0a:	8e 87       	std	Y+14, r24	; 0x0e
     a0c:	9f 87       	std	Y+15, r25	; 0x0f
     a0e:	a8 8b       	std	Y+16, r26	; 0x10
     a10:	b9 8b       	std	Y+17, r27	; 0x11

00000a12 <.LBB115>:
	__tmp = ((F_CPU) / 4e3) * __ms;
     a12:	20 e0       	ldi	r18, 0x00	; 0
     a14:	30 e0       	ldi	r19, 0x00	; 0
     a16:	4a e7       	ldi	r20, 0x7A	; 122
     a18:	55 e4       	ldi	r21, 0x45	; 69
     a1a:	6e 85       	ldd	r22, Y+14	; 0x0e
     a1c:	7f 85       	ldd	r23, Y+15	; 0x0f
     a1e:	88 89       	ldd	r24, Y+16	; 0x10
     a20:	99 89       	ldd	r25, Y+17	; 0x11
     a22:	0e 94 58 15 	call	0x2ab0	; 0x2ab0 <__mulsf3>
     a26:	ef 96       	adiw	r28, 0x3f	; 63
     a28:	6c af       	std	Y+60, r22	; 0x3c
     a2a:	7d af       	std	Y+61, r23	; 0x3d
     a2c:	8e af       	std	Y+62, r24	; 0x3e
     a2e:	9f af       	std	Y+63, r25	; 0x3f
     a30:	ef 97       	sbiw	r28, 0x3f	; 63
     a32:	ef 96       	adiw	r28, 0x3f	; 63
     a34:	8c ad       	ldd	r24, Y+60	; 0x3c
     a36:	9d ad       	ldd	r25, Y+61	; 0x3d
     a38:	ae ad       	ldd	r26, Y+62	; 0x3e
     a3a:	bf ad       	ldd	r27, Y+63	; 0x3f
     a3c:	ef 97       	sbiw	r28, 0x3f	; 63
     a3e:	8a 8b       	std	Y+18, r24	; 0x12
     a40:	9b 8b       	std	Y+19, r25	; 0x13
     a42:	ac 8b       	std	Y+20, r26	; 0x14
     a44:	bd 8b       	std	Y+21, r27	; 0x15

00000a46 <.Loc.33>:
	if (__tmp < 1.0)
     a46:	20 e0       	ldi	r18, 0x00	; 0
     a48:	30 e0       	ldi	r19, 0x00	; 0
     a4a:	40 e8       	ldi	r20, 0x80	; 128
     a4c:	5f e3       	ldi	r21, 0x3F	; 63
     a4e:	6a 89       	ldd	r22, Y+18	; 0x12
     a50:	7b 89       	ldd	r23, Y+19	; 0x13
     a52:	8c 89       	ldd	r24, Y+20	; 0x14
     a54:	9d 89       	ldd	r25, Y+21	; 0x15
     a56:	0e 94 f4 13 	call	0x27e8	; 0x27e8 <__cmpsf2>
     a5a:	88 23       	and	r24, r24
     a5c:	2c f4       	brge	.+10     	; 0xa68 <.L61>

00000a5e <.Loc.34>:
		__ticks = 1;
     a5e:	81 e0       	ldi	r24, 0x01	; 1
     a60:	90 e0       	ldi	r25, 0x00	; 0
     a62:	9f 8b       	std	Y+23, r25	; 0x17
     a64:	8e 8b       	std	Y+22, r24	; 0x16
     a66:	72 c0       	rjmp	.+228    	; 0xb4c <.L11>

00000a68 <.L61>:
	else if (__tmp > 65535)
     a68:	20 e0       	ldi	r18, 0x00	; 0
     a6a:	3f ef       	ldi	r19, 0xFF	; 255
     a6c:	4f e7       	ldi	r20, 0x7F	; 127
     a6e:	57 e4       	ldi	r21, 0x47	; 71
     a70:	6a 89       	ldd	r22, Y+18	; 0x12
     a72:	7b 89       	ldd	r23, Y+19	; 0x13
     a74:	8c 89       	ldd	r24, Y+20	; 0x14
     a76:	9d 89       	ldd	r25, Y+21	; 0x15
     a78:	0e 94 53 15 	call	0x2aa6	; 0x2aa6 <__gesf2>
     a7c:	88 23       	and	r24, r24
     a7e:	09 f0       	breq	.+2      	; 0xa82 <L0^A>

00000a80 <L0^A>:
     a80:	0c f4       	brge	.+2      	; 0xa84 <.Loc.36>

00000a82 <L0^A>:
     a82:	4e c0       	rjmp	.+156    	; 0xb20 <.L62>

00000a84 <.Loc.36>:
		__ticks = (uint16_t) (__ms * 10.0);
     a84:	20 e0       	ldi	r18, 0x00	; 0
     a86:	30 e0       	ldi	r19, 0x00	; 0
     a88:	40 e2       	ldi	r20, 0x20	; 32
     a8a:	51 e4       	ldi	r21, 0x41	; 65
     a8c:	6e 85       	ldd	r22, Y+14	; 0x0e
     a8e:	7f 85       	ldd	r23, Y+15	; 0x0f
     a90:	88 89       	ldd	r24, Y+16	; 0x10
     a92:	99 89       	ldd	r25, Y+17	; 0x11
     a94:	0e 94 58 15 	call	0x2ab0	; 0x2ab0 <__mulsf3>
     a98:	c1 58       	subi	r28, 0x81	; 129
     a9a:	df 4f       	sbci	r29, 0xFF	; 255
     a9c:	68 83       	st	Y, r22
     a9e:	79 83       	std	Y+1, r23	; 0x01
     aa0:	8a 83       	std	Y+2, r24	; 0x02
     aa2:	9b 83       	std	Y+3, r25	; 0x03
     aa4:	cf 57       	subi	r28, 0x7F	; 127
     aa6:	d0 40       	sbci	r29, 0x00	; 0
     aa8:	c1 58       	subi	r28, 0x81	; 129
     aaa:	df 4f       	sbci	r29, 0xFF	; 255
     aac:	88 81       	ld	r24, Y
     aae:	99 81       	ldd	r25, Y+1	; 0x01
     ab0:	aa 81       	ldd	r26, Y+2	; 0x02
     ab2:	bb 81       	ldd	r27, Y+3	; 0x03
     ab4:	cf 57       	subi	r28, 0x7F	; 127
     ab6:	d0 40       	sbci	r29, 0x00	; 0
     ab8:	a7 96       	adiw	r28, 0x27	; 39
     aba:	8c af       	std	Y+60, r24	; 0x3c
     abc:	9d af       	std	Y+61, r25	; 0x3d
     abe:	ae af       	std	Y+62, r26	; 0x3e
     ac0:	bf af       	std	Y+63, r27	; 0x3f
     ac2:	a7 97       	sbiw	r28, 0x27	; 39

00000ac4 <.Loc.37>:
     ac4:	a7 96       	adiw	r28, 0x27	; 39
     ac6:	6c ad       	ldd	r22, Y+60	; 0x3c
     ac8:	7d ad       	ldd	r23, Y+61	; 0x3d
     aca:	8e ad       	ldd	r24, Y+62	; 0x3e
     acc:	9f ad       	ldd	r25, Y+63	; 0x3f
     ace:	a7 97       	sbiw	r28, 0x27	; 39
     ad0:	0e 94 72 14 	call	0x28e4	; 0x28e4 <__fixunssfsi>
     ad4:	cd 57       	subi	r28, 0x7D	; 125
     ad6:	df 4f       	sbci	r29, 0xFF	; 255
     ad8:	68 83       	st	Y, r22
     ada:	79 83       	std	Y+1, r23	; 0x01
     adc:	8a 83       	std	Y+2, r24	; 0x02
     ade:	9b 83       	std	Y+3, r25	; 0x03
     ae0:	c3 58       	subi	r28, 0x83	; 131
     ae2:	d0 40       	sbci	r29, 0x00	; 0
     ae4:	cd 57       	subi	r28, 0x7D	; 125
     ae6:	df 4f       	sbci	r29, 0xFF	; 255
     ae8:	a8 81       	ld	r26, Y
     aea:	b9 81       	ldd	r27, Y+1	; 0x01
     aec:	c3 58       	subi	r28, 0x83	; 131
     aee:	d0 40       	sbci	r29, 0x00	; 0
     af0:	bf 8b       	std	Y+23, r27	; 0x17
     af2:	ae 8b       	std	Y+22, r26	; 0x16

00000af4 <.Loc.38>:
		while(__ticks)
     af4:	10 c0       	rjmp	.+32     	; 0xb16 <.L14>

00000af6 <.L15>:
     af6:	80 e9       	ldi	r24, 0x90	; 144
     af8:	91 e0       	ldi	r25, 0x01	; 1
     afa:	99 8f       	std	Y+25, r25	; 0x19
     afc:	88 8f       	std	Y+24, r24	; 0x18

00000afe <.LBB117>:
		"sbc %B0,__zero_reg__"    "\n\t"
		"brne 1b"
		: "+d" (__count)
	);
#else
	__asm__ volatile (
     afe:	88 8d       	ldd	r24, Y+24	; 0x18
     b00:	99 8d       	ldd	r25, Y+25	; 0x19

00000b02 <.L1^B1>:
     b02:	01 97       	sbiw	r24, 0x01	; 1
     b04:	f1 f7       	brne	.-4      	; 0xb02 <.L1^B1>
     b06:	99 8f       	std	Y+25, r25	; 0x19
     b08:	88 8f       	std	Y+24, r24	; 0x18

00000b0a <.Loc.40>:
	...

00000b0c <.LBE117>:
			__ticks --;
     b0c:	8e 89       	ldd	r24, Y+22	; 0x16
     b0e:	9f 89       	ldd	r25, Y+23	; 0x17
     b10:	01 97       	sbiw	r24, 0x01	; 1
     b12:	9f 8b       	std	Y+23, r25	; 0x17
     b14:	8e 8b       	std	Y+22, r24	; 0x16

00000b16 <.L14>:
		while(__ticks)
     b16:	8e 89       	ldd	r24, Y+22	; 0x16
     b18:	9f 89       	ldd	r25, Y+23	; 0x17
     b1a:	00 97       	sbiw	r24, 0x00	; 0
     b1c:	61 f7       	brne	.-40     	; 0xaf6 <.L15>

00000b1e <.Loc.43>:
		return;
     b1e:	64 c0       	rjmp	.+200    	; 0xbe8 <.L6>

00000b20 <.L62>:
		__ticks = (uint16_t)__tmp;
     b20:	6a 89       	ldd	r22, Y+18	; 0x12
     b22:	7b 89       	ldd	r23, Y+19	; 0x13
     b24:	8c 89       	ldd	r24, Y+20	; 0x14
     b26:	9d 89       	ldd	r25, Y+21	; 0x15
     b28:	0e 94 72 14 	call	0x28e4	; 0x28e4 <__fixunssfsi>
     b2c:	c9 57       	subi	r28, 0x79	; 121
     b2e:	df 4f       	sbci	r29, 0xFF	; 255
     b30:	68 83       	st	Y, r22
     b32:	79 83       	std	Y+1, r23	; 0x01
     b34:	8a 83       	std	Y+2, r24	; 0x02
     b36:	9b 83       	std	Y+3, r25	; 0x03
     b38:	c7 58       	subi	r28, 0x87	; 135
     b3a:	d0 40       	sbci	r29, 0x00	; 0
     b3c:	c9 57       	subi	r28, 0x79	; 121
     b3e:	df 4f       	sbci	r29, 0xFF	; 255
     b40:	e8 81       	ld	r30, Y
     b42:	f9 81       	ldd	r31, Y+1	; 0x01
     b44:	c7 58       	subi	r28, 0x87	; 135
     b46:	d0 40       	sbci	r29, 0x00	; 0
     b48:	ff 8b       	std	Y+23, r31	; 0x17
     b4a:	ee 8b       	std	Y+22, r30	; 0x16

00000b4c <.L11>:
     b4c:	8e 89       	ldd	r24, Y+22	; 0x16
     b4e:	9f 89       	ldd	r25, Y+23	; 0x17
     b50:	9b 8f       	std	Y+27, r25	; 0x1b
     b52:	8a 8f       	std	Y+26, r24	; 0x1a

00000b54 <.LBB119>:
     b54:	8a 8d       	ldd	r24, Y+26	; 0x1a
     b56:	9b 8d       	ldd	r25, Y+27	; 0x1b

00000b58 <.L1^B2>:
     b58:	01 97       	sbiw	r24, 0x01	; 1
     b5a:	f1 f7       	brne	.-4      	; 0xb58 <.L1^B2>
     b5c:	9b 8f       	std	Y+27, r25	; 0x1b
     b5e:	8a 8f       	std	Y+26, r24	; 0x1a

00000b60 <.Loc.46>:
		"brne 1b"
		: "=w" (__count)
		: "0" (__count)
	);
#endif /* __AVR_TINY__ */
}
     b60:	43 c0       	rjmp	.+134    	; 0xbe8 <.L6>

00000b62 <.L60>:
	}
	else if (__tmp > 255)
     b62:	20 e0       	ldi	r18, 0x00	; 0
     b64:	30 e0       	ldi	r19, 0x00	; 0
     b66:	4f e7       	ldi	r20, 0x7F	; 127
     b68:	53 e4       	ldi	r21, 0x43	; 67
     b6a:	6d 81       	ldd	r22, Y+5	; 0x05
     b6c:	7e 81       	ldd	r23, Y+6	; 0x06
     b6e:	8f 81       	ldd	r24, Y+7	; 0x07
     b70:	98 85       	ldd	r25, Y+8	; 0x08
     b72:	0e 94 53 15 	call	0x2aa6	; 0x2aa6 <__gesf2>
     b76:	88 23       	and	r24, r24
     b78:	19 f1       	breq	.+70     	; 0xbc0 <.L63>
     b7a:	14 f1       	brlt	.+68     	; 0xbc0 <.L63>

00000b7c <.LBB121>:
	{
		uint16_t __ticks=(uint16_t)__tmp2;
     b7c:	69 85       	ldd	r22, Y+9	; 0x09
     b7e:	7a 85       	ldd	r23, Y+10	; 0x0a
     b80:	8b 85       	ldd	r24, Y+11	; 0x0b
     b82:	9c 85       	ldd	r25, Y+12	; 0x0c
     b84:	0e 94 72 14 	call	0x28e4	; 0x28e4 <__fixunssfsi>
     b88:	c5 57       	subi	r28, 0x75	; 117
     b8a:	df 4f       	sbci	r29, 0xFF	; 255
     b8c:	68 83       	st	Y, r22
     b8e:	79 83       	std	Y+1, r23	; 0x01
     b90:	8a 83       	std	Y+2, r24	; 0x02
     b92:	9b 83       	std	Y+3, r25	; 0x03
     b94:	cb 58       	subi	r28, 0x8B	; 139
     b96:	d0 40       	sbci	r29, 0x00	; 0
     b98:	c5 57       	subi	r28, 0x75	; 117
     b9a:	df 4f       	sbci	r29, 0xFF	; 255
     b9c:	88 81       	ld	r24, Y
     b9e:	99 81       	ldd	r25, Y+1	; 0x01
     ba0:	cb 58       	subi	r28, 0x8B	; 139
     ba2:	d0 40       	sbci	r29, 0x00	; 0
     ba4:	9d 8f       	std	Y+29, r25	; 0x1d
     ba6:	8c 8f       	std	Y+28, r24	; 0x1c
     ba8:	8c 8d       	ldd	r24, Y+28	; 0x1c
     baa:	9d 8d       	ldd	r25, Y+29	; 0x1d
     bac:	9f 8f       	std	Y+31, r25	; 0x1f
     bae:	8e 8f       	std	Y+30, r24	; 0x1e

00000bb0 <.LBB122>:
	__asm__ volatile (
     bb0:	8e 8d       	ldd	r24, Y+30	; 0x1e
     bb2:	9f 8d       	ldd	r25, Y+31	; 0x1f

00000bb4 <.L1^B3>:
     bb4:	01 97       	sbiw	r24, 0x01	; 1
     bb6:	f1 f7       	brne	.-4      	; 0xbb4 <.L1^B3>
     bb8:	9f 8f       	std	Y+31, r25	; 0x1f
     bba:	8e 8f       	std	Y+30, r24	; 0x1e

00000bbc <.Loc.50>:
	...

00000bbe <.LBE122>:
		_delay_loop_2(__ticks);
		return;
     bbe:	1b c0       	rjmp	.+54     	; 0xbf6 <.L19>

00000bc0 <.L63>:
	}
	else
		__ticks = (uint8_t)__tmp;
     bc0:	6d 81       	ldd	r22, Y+5	; 0x05
     bc2:	7e 81       	ldd	r23, Y+6	; 0x06
     bc4:	8f 81       	ldd	r24, Y+7	; 0x07
     bc6:	98 85       	ldd	r25, Y+8	; 0x08
     bc8:	0e 94 72 14 	call	0x28e4	; 0x28e4 <__fixunssfsi>
     bcc:	c1 57       	subi	r28, 0x71	; 113
     bce:	df 4f       	sbci	r29, 0xFF	; 255
     bd0:	68 83       	st	Y, r22
     bd2:	79 83       	std	Y+1, r23	; 0x01
     bd4:	8a 83       	std	Y+2, r24	; 0x02
     bd6:	9b 83       	std	Y+3, r25	; 0x03
     bd8:	cf 58       	subi	r28, 0x8F	; 143
     bda:	d0 40       	sbci	r29, 0x00	; 0
     bdc:	c1 57       	subi	r28, 0x71	; 113
     bde:	df 4f       	sbci	r29, 0xFF	; 255
     be0:	98 81       	ld	r25, Y
     be2:	cf 58       	subi	r28, 0x8F	; 143
     be4:	d0 40       	sbci	r29, 0x00	; 0
     be6:	9d 87       	std	Y+13, r25	; 0x0d

00000be8 <.L6>:
     be8:	8d 85       	ldd	r24, Y+13	; 0x0d
     bea:	88 a3       	std	Y+32, r24	; 0x20

00000bec <.LBB124>:
	__asm__ volatile (
     bec:	88 a1       	ldd	r24, Y+32	; 0x20

00000bee <.L1^B4>:
     bee:	8a 95       	dec	r24
     bf0:	f1 f7       	brne	.-4      	; 0xbee <.L1^B4>
     bf2:	88 a3       	std	Y+32, r24	; 0x20

00000bf4 <.Loc.54>:
	...

00000bf6 <.L19>:
    _delay_us(10);
    PORTD &= ~(1 << USV_ECHO);
     bf6:	8b e2       	ldi	r24, 0x2B	; 43
     bf8:	90 e0       	ldi	r25, 0x00	; 0
     bfa:	dc 01       	movw	r26, r24
     bfc:	2c 91       	ld	r18, X

00000bfe <.Loc.56>:
     bfe:	8b e2       	ldi	r24, 0x2B	; 43
     c00:	90 e0       	ldi	r25, 0x00	; 0

00000c02 <.Loc.57>:
     c02:	2f 7e       	andi	r18, 0xEF	; 239
     c04:	fc 01       	movw	r30, r24
     c06:	20 83       	st	Z, r18

00000c08 <.Loc.58>:
	...

00000c0a <.L20>:
    // Wachten op de echo-puls
    while (!(PIND & (1 << USV_ECHO)));
     c0a:	89 e2       	ldi	r24, 0x29	; 41
     c0c:	90 e0       	ldi	r25, 0x00	; 0
     c0e:	dc 01       	movw	r26, r24
     c10:	8c 91       	ld	r24, X

00000c12 <.Loc.60>:
     c12:	88 2f       	mov	r24, r24
     c14:	90 e0       	ldi	r25, 0x00	; 0
     c16:	80 71       	andi	r24, 0x10	; 16
     c18:	99 27       	eor	r25, r25

00000c1a <.Loc.61>:
     c1a:	00 97       	sbiw	r24, 0x00	; 0
     c1c:	b1 f3       	breq	.-20     	; 0xc0a <.L20>

00000c1e <.Loc.62>:
    // Starttijd van de echo-puls vastleggen
    duration = 0;
     c1e:	10 92 08 02 	sts	0x0208, r1	; 0x800208 <duration>
     c22:	10 92 09 02 	sts	0x0209, r1	; 0x800209 <duration+0x1>
     c26:	10 92 0a 02 	sts	0x020A, r1	; 0x80020a <duration+0x2>
     c2a:	10 92 0b 02 	sts	0x020B, r1	; 0x80020b <duration+0x3>

00000c2e <.Loc.63>:
    while (PIND & (1 << USV_ECHO))
     c2e:	95 c1       	rjmp	.+810    	; 0xf5a <.L21>

00000c30 <.L38>:
     c30:	80 e0       	ldi	r24, 0x00	; 0
     c32:	90 e0       	ldi	r25, 0x00	; 0
     c34:	a0 e8       	ldi	r26, 0x80	; 128
     c36:	bf e3       	ldi	r27, 0x3F	; 63
     c38:	89 a3       	std	Y+33, r24	; 0x21
     c3a:	9a a3       	std	Y+34, r25	; 0x22
     c3c:	ab a3       	std	Y+35, r26	; 0x23
     c3e:	bc a3       	std	Y+36, r27	; 0x24

00000c40 <.LBB126>:
	__tmp = ((F_CPU) / 3e6) * __us;
     c40:	2b ea       	ldi	r18, 0xAB	; 171
     c42:	3a ea       	ldi	r19, 0xAA	; 170
     c44:	4a ea       	ldi	r20, 0xAA	; 170
     c46:	50 e4       	ldi	r21, 0x40	; 64
     c48:	69 a1       	ldd	r22, Y+33	; 0x21
     c4a:	7a a1       	ldd	r23, Y+34	; 0x22
     c4c:	8b a1       	ldd	r24, Y+35	; 0x23
     c4e:	9c a1       	ldd	r25, Y+36	; 0x24
     c50:	0e 94 58 15 	call	0x2ab0	; 0x2ab0 <__mulsf3>
     c54:	cd 56       	subi	r28, 0x6D	; 109
     c56:	df 4f       	sbci	r29, 0xFF	; 255
     c58:	68 83       	st	Y, r22
     c5a:	79 83       	std	Y+1, r23	; 0x01
     c5c:	8a 83       	std	Y+2, r24	; 0x02
     c5e:	9b 83       	std	Y+3, r25	; 0x03
     c60:	c3 59       	subi	r28, 0x93	; 147
     c62:	d0 40       	sbci	r29, 0x00	; 0
     c64:	cd 56       	subi	r28, 0x6D	; 109
     c66:	df 4f       	sbci	r29, 0xFF	; 255
     c68:	88 81       	ld	r24, Y
     c6a:	99 81       	ldd	r25, Y+1	; 0x01
     c6c:	aa 81       	ldd	r26, Y+2	; 0x02
     c6e:	bb 81       	ldd	r27, Y+3	; 0x03
     c70:	c3 59       	subi	r28, 0x93	; 147
     c72:	d0 40       	sbci	r29, 0x00	; 0
     c74:	8d a3       	std	Y+37, r24	; 0x25
     c76:	9e a3       	std	Y+38, r25	; 0x26
     c78:	af a3       	std	Y+39, r26	; 0x27
     c7a:	b8 a7       	std	Y+40, r27	; 0x28

00000c7c <.Loc.65>:
	__tmp2 = ((F_CPU) / 4e6) * __us;
     c7c:	20 e0       	ldi	r18, 0x00	; 0
     c7e:	30 e0       	ldi	r19, 0x00	; 0
     c80:	40 e8       	ldi	r20, 0x80	; 128
     c82:	50 e4       	ldi	r21, 0x40	; 64
     c84:	69 a1       	ldd	r22, Y+33	; 0x21
     c86:	7a a1       	ldd	r23, Y+34	; 0x22
     c88:	8b a1       	ldd	r24, Y+35	; 0x23
     c8a:	9c a1       	ldd	r25, Y+36	; 0x24
     c8c:	0e 94 58 15 	call	0x2ab0	; 0x2ab0 <__mulsf3>
     c90:	c9 56       	subi	r28, 0x69	; 105
     c92:	df 4f       	sbci	r29, 0xFF	; 255
     c94:	68 83       	st	Y, r22
     c96:	79 83       	std	Y+1, r23	; 0x01
     c98:	8a 83       	std	Y+2, r24	; 0x02
     c9a:	9b 83       	std	Y+3, r25	; 0x03
     c9c:	c7 59       	subi	r28, 0x97	; 151
     c9e:	d0 40       	sbci	r29, 0x00	; 0
     ca0:	c9 56       	subi	r28, 0x69	; 105
     ca2:	df 4f       	sbci	r29, 0xFF	; 255
     ca4:	88 81       	ld	r24, Y
     ca6:	99 81       	ldd	r25, Y+1	; 0x01
     ca8:	aa 81       	ldd	r26, Y+2	; 0x02
     caa:	bb 81       	ldd	r27, Y+3	; 0x03
     cac:	c7 59       	subi	r28, 0x97	; 151
     cae:	d0 40       	sbci	r29, 0x00	; 0
     cb0:	89 a7       	std	Y+41, r24	; 0x29
     cb2:	9a a7       	std	Y+42, r25	; 0x2a
     cb4:	ab a7       	std	Y+43, r26	; 0x2b
     cb6:	bc a7       	std	Y+44, r27	; 0x2c

00000cb8 <.Loc.66>:
	if (__tmp < 1.0)
     cb8:	20 e0       	ldi	r18, 0x00	; 0
     cba:	30 e0       	ldi	r19, 0x00	; 0
     cbc:	40 e8       	ldi	r20, 0x80	; 128
     cbe:	5f e3       	ldi	r21, 0x3F	; 63
     cc0:	6d a1       	ldd	r22, Y+37	; 0x25
     cc2:	7e a1       	ldd	r23, Y+38	; 0x26
     cc4:	8f a1       	ldd	r24, Y+39	; 0x27
     cc6:	98 a5       	ldd	r25, Y+40	; 0x28
     cc8:	0e 94 f4 13 	call	0x27e8	; 0x27e8 <__cmpsf2>
     ccc:	88 23       	and	r24, r24
     cce:	1c f4       	brge	.+6      	; 0xcd6 <.L64>

00000cd0 <.Loc.67>:
		__ticks = 1;
     cd0:	81 e0       	ldi	r24, 0x01	; 1
     cd2:	8d a7       	std	Y+45, r24	; 0x2d
     cd4:	1b c1       	rjmp	.+566    	; 0xf0c <.L24>

00000cd6 <.L64>:
	else if (__tmp2 > 65535)
     cd6:	20 e0       	ldi	r18, 0x00	; 0
     cd8:	3f ef       	ldi	r19, 0xFF	; 255
     cda:	4f e7       	ldi	r20, 0x7F	; 127
     cdc:	57 e4       	ldi	r21, 0x47	; 71
     cde:	69 a5       	ldd	r22, Y+41	; 0x29
     ce0:	7a a5       	ldd	r23, Y+42	; 0x2a
     ce2:	8b a5       	ldd	r24, Y+43	; 0x2b
     ce4:	9c a5       	ldd	r25, Y+44	; 0x2c
     ce6:	0e 94 53 15 	call	0x2aa6	; 0x2aa6 <__gesf2>
     cea:	88 23       	and	r24, r24
     cec:	09 f0       	breq	.+2      	; 0xcf0 <L0^A>

00000cee <L0^A>:
     cee:	0c f4       	brge	.+2      	; 0xcf2 <.Loc.69>

00000cf0 <L0^A>:
     cf0:	ca c0       	rjmp	.+404    	; 0xe86 <.L65>

00000cf2 <.Loc.69>:
		_delay_ms(__us / 1000.0);
     cf2:	20 e0       	ldi	r18, 0x00	; 0
     cf4:	30 e0       	ldi	r19, 0x00	; 0
     cf6:	4a e7       	ldi	r20, 0x7A	; 122
     cf8:	54 e4       	ldi	r21, 0x44	; 68
     cfa:	69 a1       	ldd	r22, Y+33	; 0x21
     cfc:	7a a1       	ldd	r23, Y+34	; 0x22
     cfe:	8b a1       	ldd	r24, Y+35	; 0x23
     d00:	9c a1       	ldd	r25, Y+36	; 0x24
     d02:	0e 94 f9 13 	call	0x27f2	; 0x27f2 <__divsf3>
     d06:	c5 56       	subi	r28, 0x65	; 101
     d08:	df 4f       	sbci	r29, 0xFF	; 255
     d0a:	68 83       	st	Y, r22
     d0c:	79 83       	std	Y+1, r23	; 0x01
     d0e:	8a 83       	std	Y+2, r24	; 0x02
     d10:	9b 83       	std	Y+3, r25	; 0x03
     d12:	cb 59       	subi	r28, 0x9B	; 155
     d14:	d0 40       	sbci	r29, 0x00	; 0
     d16:	c5 56       	subi	r28, 0x65	; 101
     d18:	df 4f       	sbci	r29, 0xFF	; 255
     d1a:	88 81       	ld	r24, Y
     d1c:	99 81       	ldd	r25, Y+1	; 0x01
     d1e:	aa 81       	ldd	r26, Y+2	; 0x02
     d20:	bb 81       	ldd	r27, Y+3	; 0x03
     d22:	cb 59       	subi	r28, 0x9B	; 155
     d24:	d0 40       	sbci	r29, 0x00	; 0
     d26:	8e a7       	std	Y+46, r24	; 0x2e
     d28:	9f a7       	std	Y+47, r25	; 0x2f
     d2a:	a8 ab       	std	Y+48, r26	; 0x30
     d2c:	b9 ab       	std	Y+49, r27	; 0x31

00000d2e <.LBB128>:
	__tmp = ((F_CPU) / 4e3) * __ms;
     d2e:	20 e0       	ldi	r18, 0x00	; 0
     d30:	30 e0       	ldi	r19, 0x00	; 0
     d32:	4a e7       	ldi	r20, 0x7A	; 122
     d34:	55 e4       	ldi	r21, 0x45	; 69
     d36:	6e a5       	ldd	r22, Y+46	; 0x2e
     d38:	7f a5       	ldd	r23, Y+47	; 0x2f
     d3a:	88 a9       	ldd	r24, Y+48	; 0x30
     d3c:	99 a9       	ldd	r25, Y+49	; 0x31
     d3e:	0e 94 58 15 	call	0x2ab0	; 0x2ab0 <__mulsf3>
     d42:	c1 56       	subi	r28, 0x61	; 97
     d44:	df 4f       	sbci	r29, 0xFF	; 255
     d46:	68 83       	st	Y, r22
     d48:	79 83       	std	Y+1, r23	; 0x01
     d4a:	8a 83       	std	Y+2, r24	; 0x02
     d4c:	9b 83       	std	Y+3, r25	; 0x03
     d4e:	cf 59       	subi	r28, 0x9F	; 159
     d50:	d0 40       	sbci	r29, 0x00	; 0
     d52:	c1 56       	subi	r28, 0x61	; 97
     d54:	df 4f       	sbci	r29, 0xFF	; 255
     d56:	88 81       	ld	r24, Y
     d58:	99 81       	ldd	r25, Y+1	; 0x01
     d5a:	aa 81       	ldd	r26, Y+2	; 0x02
     d5c:	bb 81       	ldd	r27, Y+3	; 0x03
     d5e:	cf 59       	subi	r28, 0x9F	; 159
     d60:	d0 40       	sbci	r29, 0x00	; 0
     d62:	8a ab       	std	Y+50, r24	; 0x32
     d64:	9b ab       	std	Y+51, r25	; 0x33
     d66:	ac ab       	std	Y+52, r26	; 0x34
     d68:	bd ab       	std	Y+53, r27	; 0x35

00000d6a <.Loc.71>:
	if (__tmp < 1.0)
     d6a:	20 e0       	ldi	r18, 0x00	; 0
     d6c:	30 e0       	ldi	r19, 0x00	; 0
     d6e:	40 e8       	ldi	r20, 0x80	; 128
     d70:	5f e3       	ldi	r21, 0x3F	; 63
     d72:	6a a9       	ldd	r22, Y+50	; 0x32
     d74:	7b a9       	ldd	r23, Y+51	; 0x33
     d76:	8c a9       	ldd	r24, Y+52	; 0x34
     d78:	9d a9       	ldd	r25, Y+53	; 0x35
     d7a:	0e 94 f4 13 	call	0x27e8	; 0x27e8 <__cmpsf2>
     d7e:	88 23       	and	r24, r24
     d80:	2c f4       	brge	.+10     	; 0xd8c <.L66>

00000d82 <.Loc.72>:
		__ticks = 1;
     d82:	81 e0       	ldi	r24, 0x01	; 1
     d84:	90 e0       	ldi	r25, 0x00	; 0
     d86:	9f ab       	std	Y+55, r25	; 0x37
     d88:	8e ab       	std	Y+54, r24	; 0x36
     d8a:	72 c0       	rjmp	.+228    	; 0xe70 <.L29>

00000d8c <.L66>:
	else if (__tmp > 65535)
     d8c:	20 e0       	ldi	r18, 0x00	; 0
     d8e:	3f ef       	ldi	r19, 0xFF	; 255
     d90:	4f e7       	ldi	r20, 0x7F	; 127
     d92:	57 e4       	ldi	r21, 0x47	; 71
     d94:	6a a9       	ldd	r22, Y+50	; 0x32
     d96:	7b a9       	ldd	r23, Y+51	; 0x33
     d98:	8c a9       	ldd	r24, Y+52	; 0x34
     d9a:	9d a9       	ldd	r25, Y+53	; 0x35
     d9c:	0e 94 53 15 	call	0x2aa6	; 0x2aa6 <__gesf2>
     da0:	88 23       	and	r24, r24
     da2:	09 f0       	breq	.+2      	; 0xda6 <L0^A>

00000da4 <L0^A>:
     da4:	0c f4       	brge	.+2      	; 0xda8 <.Loc.74>

00000da6 <L0^A>:
     da6:	4e c0       	rjmp	.+156    	; 0xe44 <.L67>

00000da8 <.Loc.74>:
		__ticks = (uint16_t) (__ms * 10.0);
     da8:	20 e0       	ldi	r18, 0x00	; 0
     daa:	30 e0       	ldi	r19, 0x00	; 0
     dac:	40 e2       	ldi	r20, 0x20	; 32
     dae:	51 e4       	ldi	r21, 0x41	; 65
     db0:	6e a5       	ldd	r22, Y+46	; 0x2e
     db2:	7f a5       	ldd	r23, Y+47	; 0x2f
     db4:	88 a9       	ldd	r24, Y+48	; 0x30
     db6:	99 a9       	ldd	r25, Y+49	; 0x31
     db8:	0e 94 58 15 	call	0x2ab0	; 0x2ab0 <__mulsf3>
     dbc:	cd 55       	subi	r28, 0x5D	; 93
     dbe:	df 4f       	sbci	r29, 0xFF	; 255
     dc0:	68 83       	st	Y, r22
     dc2:	79 83       	std	Y+1, r23	; 0x01
     dc4:	8a 83       	std	Y+2, r24	; 0x02
     dc6:	9b 83       	std	Y+3, r25	; 0x03
     dc8:	c3 5a       	subi	r28, 0xA3	; 163
     dca:	d0 40       	sbci	r29, 0x00	; 0
     dcc:	cd 55       	subi	r28, 0x5D	; 93
     dce:	df 4f       	sbci	r29, 0xFF	; 255
     dd0:	88 81       	ld	r24, Y
     dd2:	99 81       	ldd	r25, Y+1	; 0x01
     dd4:	aa 81       	ldd	r26, Y+2	; 0x02
     dd6:	bb 81       	ldd	r27, Y+3	; 0x03
     dd8:	c3 5a       	subi	r28, 0xA3	; 163
     dda:	d0 40       	sbci	r29, 0x00	; 0
     ddc:	ab 96       	adiw	r28, 0x2b	; 43
     dde:	8c af       	std	Y+60, r24	; 0x3c
     de0:	9d af       	std	Y+61, r25	; 0x3d
     de2:	ae af       	std	Y+62, r26	; 0x3e
     de4:	bf af       	std	Y+63, r27	; 0x3f
     de6:	ab 97       	sbiw	r28, 0x2b	; 43

00000de8 <.Loc.75>:
     de8:	ab 96       	adiw	r28, 0x2b	; 43
     dea:	6c ad       	ldd	r22, Y+60	; 0x3c
     dec:	7d ad       	ldd	r23, Y+61	; 0x3d
     dee:	8e ad       	ldd	r24, Y+62	; 0x3e
     df0:	9f ad       	ldd	r25, Y+63	; 0x3f
     df2:	ab 97       	sbiw	r28, 0x2b	; 43
     df4:	0e 94 72 14 	call	0x28e4	; 0x28e4 <__fixunssfsi>
     df8:	c9 55       	subi	r28, 0x59	; 89
     dfa:	df 4f       	sbci	r29, 0xFF	; 255
     dfc:	68 83       	st	Y, r22
     dfe:	79 83       	std	Y+1, r23	; 0x01
     e00:	8a 83       	std	Y+2, r24	; 0x02
     e02:	9b 83       	std	Y+3, r25	; 0x03
     e04:	c7 5a       	subi	r28, 0xA7	; 167
     e06:	d0 40       	sbci	r29, 0x00	; 0
     e08:	c9 55       	subi	r28, 0x59	; 89
     e0a:	df 4f       	sbci	r29, 0xFF	; 255
     e0c:	a8 81       	ld	r26, Y
     e0e:	b9 81       	ldd	r27, Y+1	; 0x01
     e10:	c7 5a       	subi	r28, 0xA7	; 167
     e12:	d0 40       	sbci	r29, 0x00	; 0
     e14:	bf ab       	std	Y+55, r27	; 0x37
     e16:	ae ab       	std	Y+54, r26	; 0x36

00000e18 <.Loc.76>:
		while(__ticks)
     e18:	10 c0       	rjmp	.+32     	; 0xe3a <.L32>

00000e1a <.L33>:
     e1a:	80 e9       	ldi	r24, 0x90	; 144
     e1c:	91 e0       	ldi	r25, 0x01	; 1
     e1e:	99 af       	std	Y+57, r25	; 0x39
     e20:	88 af       	std	Y+56, r24	; 0x38

00000e22 <.LBB130>:
	__asm__ volatile (
     e22:	88 ad       	ldd	r24, Y+56	; 0x38
     e24:	99 ad       	ldd	r25, Y+57	; 0x39

00000e26 <.L1^B5>:
     e26:	01 97       	sbiw	r24, 0x01	; 1
     e28:	f1 f7       	brne	.-4      	; 0xe26 <.L1^B5>
     e2a:	99 af       	std	Y+57, r25	; 0x39
     e2c:	88 af       	std	Y+56, r24	; 0x38

00000e2e <.Loc.78>:
	...

00000e30 <.LBE130>:
			__ticks --;
     e30:	8e a9       	ldd	r24, Y+54	; 0x36
     e32:	9f a9       	ldd	r25, Y+55	; 0x37
     e34:	01 97       	sbiw	r24, 0x01	; 1
     e36:	9f ab       	std	Y+55, r25	; 0x37
     e38:	8e ab       	std	Y+54, r24	; 0x36

00000e3a <.L32>:
		while(__ticks)
     e3a:	8e a9       	ldd	r24, Y+54	; 0x36
     e3c:	9f a9       	ldd	r25, Y+55	; 0x37
     e3e:	00 97       	sbiw	r24, 0x00	; 0
     e40:	61 f7       	brne	.-40     	; 0xe1a <.L33>

00000e42 <.Loc.81>:
		return;
     e42:	64 c0       	rjmp	.+200    	; 0xf0c <.L24>

00000e44 <.L67>:
		__ticks = (uint16_t)__tmp;
     e44:	6a a9       	ldd	r22, Y+50	; 0x32
     e46:	7b a9       	ldd	r23, Y+51	; 0x33
     e48:	8c a9       	ldd	r24, Y+52	; 0x34
     e4a:	9d a9       	ldd	r25, Y+53	; 0x35
     e4c:	0e 94 72 14 	call	0x28e4	; 0x28e4 <__fixunssfsi>
     e50:	c5 55       	subi	r28, 0x55	; 85
     e52:	df 4f       	sbci	r29, 0xFF	; 255
     e54:	68 83       	st	Y, r22
     e56:	79 83       	std	Y+1, r23	; 0x01
     e58:	8a 83       	std	Y+2, r24	; 0x02
     e5a:	9b 83       	std	Y+3, r25	; 0x03
     e5c:	cb 5a       	subi	r28, 0xAB	; 171
     e5e:	d0 40       	sbci	r29, 0x00	; 0
     e60:	c5 55       	subi	r28, 0x55	; 85
     e62:	df 4f       	sbci	r29, 0xFF	; 255
     e64:	e8 81       	ld	r30, Y
     e66:	f9 81       	ldd	r31, Y+1	; 0x01
     e68:	cb 5a       	subi	r28, 0xAB	; 171
     e6a:	d0 40       	sbci	r29, 0x00	; 0
     e6c:	ff ab       	std	Y+55, r31	; 0x37
     e6e:	ee ab       	std	Y+54, r30	; 0x36

00000e70 <.L29>:
     e70:	8e a9       	ldd	r24, Y+54	; 0x36
     e72:	9f a9       	ldd	r25, Y+55	; 0x37
     e74:	9b af       	std	Y+59, r25	; 0x3b
     e76:	8a af       	std	Y+58, r24	; 0x3a

00000e78 <.LBB132>:
     e78:	8a ad       	ldd	r24, Y+58	; 0x3a
     e7a:	9b ad       	ldd	r25, Y+59	; 0x3b

00000e7c <.L1^B6>:
     e7c:	01 97       	sbiw	r24, 0x01	; 1
     e7e:	f1 f7       	brne	.-4      	; 0xe7c <.L1^B6>
     e80:	9b af       	std	Y+59, r25	; 0x3b
     e82:	8a af       	std	Y+58, r24	; 0x3a

00000e84 <.Loc.84>:
}
     e84:	43 c0       	rjmp	.+134    	; 0xf0c <.L24>

00000e86 <.L65>:
	else if (__tmp > 255)
     e86:	20 e0       	ldi	r18, 0x00	; 0
     e88:	30 e0       	ldi	r19, 0x00	; 0
     e8a:	4f e7       	ldi	r20, 0x7F	; 127
     e8c:	53 e4       	ldi	r21, 0x43	; 67
     e8e:	6d a1       	ldd	r22, Y+37	; 0x25
     e90:	7e a1       	ldd	r23, Y+38	; 0x26
     e92:	8f a1       	ldd	r24, Y+39	; 0x27
     e94:	98 a5       	ldd	r25, Y+40	; 0x28
     e96:	0e 94 53 15 	call	0x2aa6	; 0x2aa6 <__gesf2>
     e9a:	88 23       	and	r24, r24
     e9c:	19 f1       	breq	.+70     	; 0xee4 <.L68>
     e9e:	14 f1       	brlt	.+68     	; 0xee4 <.L68>

00000ea0 <.LBB134>:
		uint16_t __ticks=(uint16_t)__tmp2;
     ea0:	69 a5       	ldd	r22, Y+41	; 0x29
     ea2:	7a a5       	ldd	r23, Y+42	; 0x2a
     ea4:	8b a5       	ldd	r24, Y+43	; 0x2b
     ea6:	9c a5       	ldd	r25, Y+44	; 0x2c
     ea8:	0e 94 72 14 	call	0x28e4	; 0x28e4 <__fixunssfsi>
     eac:	c1 55       	subi	r28, 0x51	; 81
     eae:	df 4f       	sbci	r29, 0xFF	; 255
     eb0:	68 83       	st	Y, r22
     eb2:	79 83       	std	Y+1, r23	; 0x01
     eb4:	8a 83       	std	Y+2, r24	; 0x02
     eb6:	9b 83       	std	Y+3, r25	; 0x03
     eb8:	cf 5a       	subi	r28, 0xAF	; 175
     eba:	d0 40       	sbci	r29, 0x00	; 0
     ebc:	c1 55       	subi	r28, 0x51	; 81
     ebe:	df 4f       	sbci	r29, 0xFF	; 255
     ec0:	88 81       	ld	r24, Y
     ec2:	99 81       	ldd	r25, Y+1	; 0x01
     ec4:	cf 5a       	subi	r28, 0xAF	; 175
     ec6:	d0 40       	sbci	r29, 0x00	; 0
     ec8:	9d af       	std	Y+61, r25	; 0x3d
     eca:	8c af       	std	Y+60, r24	; 0x3c
     ecc:	8c ad       	ldd	r24, Y+60	; 0x3c
     ece:	9d ad       	ldd	r25, Y+61	; 0x3d
     ed0:	9f af       	std	Y+63, r25	; 0x3f
     ed2:	8e af       	std	Y+62, r24	; 0x3e

00000ed4 <.LBB135>:
	__asm__ volatile (
     ed4:	8e ad       	ldd	r24, Y+62	; 0x3e
     ed6:	9f ad       	ldd	r25, Y+63	; 0x3f

00000ed8 <.L1^B7>:
     ed8:	01 97       	sbiw	r24, 0x01	; 1
     eda:	f1 f7       	brne	.-4      	; 0xed8 <.L1^B7>
     edc:	9f af       	std	Y+63, r25	; 0x3f
     ede:	8e af       	std	Y+62, r24	; 0x3e

00000ee0 <.Loc.88>:
	...

00000ee2 <.LBE135>:
		return;
     ee2:	28 c0       	rjmp	.+80     	; 0xf34 <.L37>

00000ee4 <.L68>:
		__ticks = (uint8_t)__tmp;
     ee4:	6d a1       	ldd	r22, Y+37	; 0x25
     ee6:	7e a1       	ldd	r23, Y+38	; 0x26
     ee8:	8f a1       	ldd	r24, Y+39	; 0x27
     eea:	98 a5       	ldd	r25, Y+40	; 0x28
     eec:	0e 94 72 14 	call	0x28e4	; 0x28e4 <__fixunssfsi>
     ef0:	cd 54       	subi	r28, 0x4D	; 77
     ef2:	df 4f       	sbci	r29, 0xFF	; 255
     ef4:	68 83       	st	Y, r22
     ef6:	79 83       	std	Y+1, r23	; 0x01
     ef8:	8a 83       	std	Y+2, r24	; 0x02
     efa:	9b 83       	std	Y+3, r25	; 0x03
     efc:	c3 5b       	subi	r28, 0xB3	; 179
     efe:	d0 40       	sbci	r29, 0x00	; 0
     f00:	cd 54       	subi	r28, 0x4D	; 77
     f02:	df 4f       	sbci	r29, 0xFF	; 255
     f04:	98 81       	ld	r25, Y
     f06:	c3 5b       	subi	r28, 0xB3	; 179
     f08:	d0 40       	sbci	r29, 0x00	; 0
     f0a:	9d a7       	std	Y+45, r25	; 0x2d

00000f0c <.L24>:
     f0c:	2d a5       	ldd	r18, Y+45	; 0x2d
     f0e:	ce 01       	movw	r24, r28
     f10:	80 5c       	subi	r24, 0xC0	; 192
     f12:	9f 4f       	sbci	r25, 0xFF	; 255
     f14:	dc 01       	movw	r26, r24
     f16:	2c 93       	st	X, r18

00000f18 <.LBB137>:
	__asm__ volatile (
     f18:	ce 01       	movw	r24, r28
     f1a:	80 5c       	subi	r24, 0xC0	; 192
     f1c:	9f 4f       	sbci	r25, 0xFF	; 255
     f1e:	fc 01       	movw	r30, r24
     f20:	80 81       	ld	r24, Z
     f22:	28 2f       	mov	r18, r24

00000f24 <.L1^B8>:
     f24:	2a 95       	dec	r18
     f26:	f1 f7       	brne	.-4      	; 0xf24 <.L1^B8>
     f28:	ce 01       	movw	r24, r28
     f2a:	80 5c       	subi	r24, 0xC0	; 192
     f2c:	9f 4f       	sbci	r25, 0xFF	; 255
     f2e:	dc 01       	movw	r26, r24
     f30:	2c 93       	st	X, r18

00000f32 <.Loc.92>:
	...

00000f34 <.L37>:
    {
        _delay_us(1);
        duration++;
     f34:	80 91 08 02 	lds	r24, 0x0208	; 0x800208 <duration>
     f38:	90 91 09 02 	lds	r25, 0x0209	; 0x800209 <duration+0x1>
     f3c:	a0 91 0a 02 	lds	r26, 0x020A	; 0x80020a <duration+0x2>
     f40:	b0 91 0b 02 	lds	r27, 0x020B	; 0x80020b <duration+0x3>
     f44:	01 96       	adiw	r24, 0x01	; 1
     f46:	a1 1d       	adc	r26, r1
     f48:	b1 1d       	adc	r27, r1
     f4a:	80 93 08 02 	sts	0x0208, r24	; 0x800208 <duration>
     f4e:	90 93 09 02 	sts	0x0209, r25	; 0x800209 <duration+0x1>
     f52:	a0 93 0a 02 	sts	0x020A, r26	; 0x80020a <duration+0x2>
     f56:	b0 93 0b 02 	sts	0x020B, r27	; 0x80020b <duration+0x3>

00000f5a <.L21>:
    while (PIND & (1 << USV_ECHO))
     f5a:	89 e2       	ldi	r24, 0x29	; 41
     f5c:	90 e0       	ldi	r25, 0x00	; 0
     f5e:	fc 01       	movw	r30, r24
     f60:	80 81       	ld	r24, Z

00000f62 <.Loc.95>:
     f62:	88 2f       	mov	r24, r24
     f64:	90 e0       	ldi	r25, 0x00	; 0
     f66:	80 71       	andi	r24, 0x10	; 16
     f68:	99 27       	eor	r25, r25

00000f6a <.Loc.96>:
     f6a:	00 97       	sbiw	r24, 0x00	; 0
     f6c:	09 f0       	breq	.+2      	; 0xf70 <.Loc.97>

00000f6e <L0^A>:
     f6e:	60 ce       	rjmp	.-832    	; 0xc30 <.L38>

00000f70 <.Loc.97>:
    }
    distance_V = duration * 0.034 / 2;
     f70:	80 91 08 02 	lds	r24, 0x0208	; 0x800208 <duration>
     f74:	90 91 09 02 	lds	r25, 0x0209	; 0x800209 <duration+0x1>
     f78:	a0 91 0a 02 	lds	r26, 0x020A	; 0x80020a <duration+0x2>
     f7c:	b0 91 0b 02 	lds	r27, 0x020B	; 0x80020b <duration+0x3>
     f80:	63 96       	adiw	r28, 0x13	; 19
     f82:	8c af       	std	Y+60, r24	; 0x3c
     f84:	9d af       	std	Y+61, r25	; 0x3d
     f86:	ae af       	std	Y+62, r26	; 0x3e
     f88:	bf af       	std	Y+63, r27	; 0x3f
     f8a:	63 97       	sbiw	r28, 0x13	; 19
     f8c:	63 96       	adiw	r28, 0x13	; 19
     f8e:	6c ad       	ldd	r22, Y+60	; 0x3c
     f90:	7d ad       	ldd	r23, Y+61	; 0x3d
     f92:	8e ad       	ldd	r24, Y+62	; 0x3e
     f94:	9f ad       	ldd	r25, Y+63	; 0x3f
     f96:	63 97       	sbiw	r28, 0x13	; 19
     f98:	0e 94 a3 14 	call	0x2946	; 0x2946 <__floatsisf>
     f9c:	67 96       	adiw	r28, 0x17	; 23
     f9e:	6c af       	std	Y+60, r22	; 0x3c
     fa0:	7d af       	std	Y+61, r23	; 0x3d
     fa2:	8e af       	std	Y+62, r24	; 0x3e
     fa4:	9f af       	std	Y+63, r25	; 0x3f
     fa6:	67 97       	sbiw	r28, 0x17	; 23
     fa8:	26 e9       	ldi	r18, 0x96	; 150
     faa:	33 e4       	ldi	r19, 0x43	; 67
     fac:	4b e0       	ldi	r20, 0x0B	; 11
     fae:	5d e3       	ldi	r21, 0x3D	; 61
     fb0:	67 96       	adiw	r28, 0x17	; 23
     fb2:	6c ad       	ldd	r22, Y+60	; 0x3c
     fb4:	7d ad       	ldd	r23, Y+61	; 0x3d
     fb6:	8e ad       	ldd	r24, Y+62	; 0x3e
     fb8:	9f ad       	ldd	r25, Y+63	; 0x3f
     fba:	67 97       	sbiw	r28, 0x17	; 23
     fbc:	0e 94 58 15 	call	0x2ab0	; 0x2ab0 <__mulsf3>
     fc0:	c9 54       	subi	r28, 0x49	; 73
     fc2:	df 4f       	sbci	r29, 0xFF	; 255
     fc4:	68 83       	st	Y, r22
     fc6:	79 83       	std	Y+1, r23	; 0x01
     fc8:	8a 83       	std	Y+2, r24	; 0x02
     fca:	9b 83       	std	Y+3, r25	; 0x03
     fcc:	c7 5b       	subi	r28, 0xB7	; 183
     fce:	d0 40       	sbci	r29, 0x00	; 0
     fd0:	c9 54       	subi	r28, 0x49	; 73
     fd2:	df 4f       	sbci	r29, 0xFF	; 255
     fd4:	88 81       	ld	r24, Y
     fd6:	99 81       	ldd	r25, Y+1	; 0x01
     fd8:	aa 81       	ldd	r26, Y+2	; 0x02
     fda:	bb 81       	ldd	r27, Y+3	; 0x03
     fdc:	c7 5b       	subi	r28, 0xB7	; 183
     fde:	d0 40       	sbci	r29, 0x00	; 0
     fe0:	6b 96       	adiw	r28, 0x1b	; 27
     fe2:	8c af       	std	Y+60, r24	; 0x3c
     fe4:	9d af       	std	Y+61, r25	; 0x3d
     fe6:	ae af       	std	Y+62, r26	; 0x3e
     fe8:	bf af       	std	Y+63, r27	; 0x3f
     fea:	6b 97       	sbiw	r28, 0x1b	; 27

00000fec <.Loc.98>:
     fec:	20 e0       	ldi	r18, 0x00	; 0
     fee:	30 e0       	ldi	r19, 0x00	; 0
     ff0:	40 e0       	ldi	r20, 0x00	; 0
     ff2:	50 e4       	ldi	r21, 0x40	; 64
     ff4:	6b 96       	adiw	r28, 0x1b	; 27
     ff6:	6c ad       	ldd	r22, Y+60	; 0x3c
     ff8:	7d ad       	ldd	r23, Y+61	; 0x3d
     ffa:	8e ad       	ldd	r24, Y+62	; 0x3e
     ffc:	9f ad       	ldd	r25, Y+63	; 0x3f
     ffe:	6b 97       	sbiw	r28, 0x1b	; 27
    1000:	0e 94 f9 13 	call	0x27f2	; 0x27f2 <__divsf3>
    1004:	c5 54       	subi	r28, 0x45	; 69
    1006:	df 4f       	sbci	r29, 0xFF	; 255
    1008:	68 83       	st	Y, r22
    100a:	79 83       	std	Y+1, r23	; 0x01
    100c:	8a 83       	std	Y+2, r24	; 0x02
    100e:	9b 83       	std	Y+3, r25	; 0x03
    1010:	cb 5b       	subi	r28, 0xBB	; 187
    1012:	d0 40       	sbci	r29, 0x00	; 0
    1014:	c5 54       	subi	r28, 0x45	; 69
    1016:	df 4f       	sbci	r29, 0xFF	; 255
    1018:	88 81       	ld	r24, Y
    101a:	99 81       	ldd	r25, Y+1	; 0x01
    101c:	aa 81       	ldd	r26, Y+2	; 0x02
    101e:	bb 81       	ldd	r27, Y+3	; 0x03
    1020:	cb 5b       	subi	r28, 0xBB	; 187
    1022:	d0 40       	sbci	r29, 0x00	; 0
    1024:	6f 96       	adiw	r28, 0x1f	; 31
    1026:	8c af       	std	Y+60, r24	; 0x3c
    1028:	9d af       	std	Y+61, r25	; 0x3d
    102a:	ae af       	std	Y+62, r26	; 0x3e
    102c:	bf af       	std	Y+63, r27	; 0x3f
    102e:	6f 97       	sbiw	r28, 0x1f	; 31

00001030 <.Loc.99>:
    1030:	6f 96       	adiw	r28, 0x1f	; 31
    1032:	6c ad       	ldd	r22, Y+60	; 0x3c
    1034:	7d ad       	ldd	r23, Y+61	; 0x3d
    1036:	8e ad       	ldd	r24, Y+62	; 0x3e
    1038:	9f ad       	ldd	r25, Y+63	; 0x3f
    103a:	6f 97       	sbiw	r28, 0x1f	; 31
    103c:	0e 94 6b 14 	call	0x28d6	; 0x28d6 <__fixsfsi>
    1040:	a3 96       	adiw	r28, 0x23	; 35
    1042:	6c af       	std	Y+60, r22	; 0x3c
    1044:	7d af       	std	Y+61, r23	; 0x3d
    1046:	8e af       	std	Y+62, r24	; 0x3e
    1048:	9f af       	std	Y+63, r25	; 0x3f
    104a:	a3 97       	sbiw	r28, 0x23	; 35
    104c:	a3 96       	adiw	r28, 0x23	; 35
    104e:	8c ad       	ldd	r24, Y+60	; 0x3c
    1050:	9d ad       	ldd	r25, Y+61	; 0x3d
    1052:	ae ad       	ldd	r26, Y+62	; 0x3e
    1054:	bf ad       	ldd	r27, Y+63	; 0x3f
    1056:	a3 97       	sbiw	r28, 0x23	; 35
    1058:	80 93 0c 02 	sts	0x020C, r24	; 0x80020c <distance_V>
    105c:	90 93 0d 02 	sts	0x020D, r25	; 0x80020d <distance_V+0x1>
    1060:	a0 93 0e 02 	sts	0x020E, r26	; 0x80020e <distance_V+0x2>
    1064:	b0 93 0f 02 	sts	0x020F, r27	; 0x80020f <distance_V+0x3>
    1068:	9e 01       	movw	r18, r28
    106a:	2f 5b       	subi	r18, 0xBF	; 191
    106c:	3f 4f       	sbci	r19, 0xFF	; 255
    106e:	80 e0       	ldi	r24, 0x00	; 0
    1070:	90 e0       	ldi	r25, 0x00	; 0
    1072:	a0 e2       	ldi	r26, 0x20	; 32
    1074:	b1 e4       	ldi	r27, 0x41	; 65
    1076:	f9 01       	movw	r30, r18
    1078:	80 83       	st	Z, r24
    107a:	91 83       	std	Z+1, r25	; 0x01
    107c:	a2 83       	std	Z+2, r26	; 0x02
    107e:	b3 83       	std	Z+3, r27	; 0x03

00001080 <.LBB139>:
	__tmp = ((F_CPU) / 4e3) * __ms;
    1080:	8e 01       	movw	r16, r28
    1082:	0b 5b       	subi	r16, 0xBB	; 187
    1084:	1f 4f       	sbci	r17, 0xFF	; 255
    1086:	ce 01       	movw	r24, r28
    1088:	8f 5b       	subi	r24, 0xBF	; 191
    108a:	9f 4f       	sbci	r25, 0xFF	; 255
    108c:	20 e0       	ldi	r18, 0x00	; 0
    108e:	30 e0       	ldi	r19, 0x00	; 0
    1090:	4a e7       	ldi	r20, 0x7A	; 122
    1092:	55 e4       	ldi	r21, 0x45	; 69
    1094:	dc 01       	movw	r26, r24
    1096:	6d 91       	ld	r22, X+
    1098:	7d 91       	ld	r23, X+
    109a:	8d 91       	ld	r24, X+
    109c:	9c 91       	ld	r25, X
    109e:	0e 94 58 15 	call	0x2ab0	; 0x2ab0 <__mulsf3>
    10a2:	c1 54       	subi	r28, 0x41	; 65
    10a4:	df 4f       	sbci	r29, 0xFF	; 255
    10a6:	68 83       	st	Y, r22
    10a8:	79 83       	std	Y+1, r23	; 0x01
    10aa:	8a 83       	std	Y+2, r24	; 0x02
    10ac:	9b 83       	std	Y+3, r25	; 0x03
    10ae:	cf 5b       	subi	r28, 0xBF	; 191
    10b0:	d0 40       	sbci	r29, 0x00	; 0
    10b2:	c1 54       	subi	r28, 0x41	; 65
    10b4:	df 4f       	sbci	r29, 0xFF	; 255
    10b6:	88 81       	ld	r24, Y
    10b8:	99 81       	ldd	r25, Y+1	; 0x01
    10ba:	aa 81       	ldd	r26, Y+2	; 0x02
    10bc:	bb 81       	ldd	r27, Y+3	; 0x03
    10be:	cf 5b       	subi	r28, 0xBF	; 191
    10c0:	d0 40       	sbci	r29, 0x00	; 0
    10c2:	f8 01       	movw	r30, r16
    10c4:	80 83       	st	Z, r24
    10c6:	91 83       	std	Z+1, r25	; 0x01
    10c8:	a2 83       	std	Z+2, r26	; 0x02
    10ca:	b3 83       	std	Z+3, r27	; 0x03

000010cc <.Loc.101>:
	if (__tmp < 1.0)
    10cc:	ce 01       	movw	r24, r28
    10ce:	8b 5b       	subi	r24, 0xBB	; 187
    10d0:	9f 4f       	sbci	r25, 0xFF	; 255
    10d2:	20 e0       	ldi	r18, 0x00	; 0
    10d4:	30 e0       	ldi	r19, 0x00	; 0
    10d6:	40 e8       	ldi	r20, 0x80	; 128
    10d8:	5f e3       	ldi	r21, 0x3F	; 63
    10da:	dc 01       	movw	r26, r24
    10dc:	6d 91       	ld	r22, X+
    10de:	7d 91       	ld	r23, X+
    10e0:	8d 91       	ld	r24, X+
    10e2:	9c 91       	ld	r25, X
    10e4:	0e 94 f4 13 	call	0x27e8	; 0x27e8 <__cmpsf2>
    10e8:	88 23       	and	r24, r24
    10ea:	4c f4       	brge	.+18     	; 0x10fe <.L69>

000010ec <.Loc.102>:
		__ticks = 1;
    10ec:	ce 01       	movw	r24, r28
    10ee:	87 5b       	subi	r24, 0xB7	; 183
    10f0:	9f 4f       	sbci	r25, 0xFF	; 255
    10f2:	21 e0       	ldi	r18, 0x01	; 1
    10f4:	30 e0       	ldi	r19, 0x00	; 0
    10f6:	fc 01       	movw	r30, r24
    10f8:	31 83       	std	Z+1, r19	; 0x01
    10fa:	20 83       	st	Z, r18
    10fc:	a1 c0       	rjmp	.+322    	; 0x1240 <.L41>

000010fe <.L69>:
	else if (__tmp > 65535)
    10fe:	ce 01       	movw	r24, r28
    1100:	8b 5b       	subi	r24, 0xBB	; 187
    1102:	9f 4f       	sbci	r25, 0xFF	; 255
    1104:	20 e0       	ldi	r18, 0x00	; 0
    1106:	3f ef       	ldi	r19, 0xFF	; 255
    1108:	4f e7       	ldi	r20, 0x7F	; 127
    110a:	57 e4       	ldi	r21, 0x47	; 71
    110c:	dc 01       	movw	r26, r24
    110e:	6d 91       	ld	r22, X+
    1110:	7d 91       	ld	r23, X+
    1112:	8d 91       	ld	r24, X+
    1114:	9c 91       	ld	r25, X
    1116:	0e 94 53 15 	call	0x2aa6	; 0x2aa6 <__gesf2>
    111a:	88 23       	and	r24, r24
    111c:	09 f0       	breq	.+2      	; 0x1120 <L0^A>

0000111e <L0^A>:
    111e:	0c f4       	brge	.+2      	; 0x1122 <.Loc.104>

00001120 <L0^A>:
    1120:	71 c0       	rjmp	.+226    	; 0x1204 <.L70>

00001122 <.Loc.104>:
		__ticks = (uint16_t) (__ms * 10.0);
    1122:	ce 01       	movw	r24, r28
    1124:	8f 5b       	subi	r24, 0xBF	; 191
    1126:	9f 4f       	sbci	r25, 0xFF	; 255
    1128:	20 e0       	ldi	r18, 0x00	; 0
    112a:	30 e0       	ldi	r19, 0x00	; 0
    112c:	40 e2       	ldi	r20, 0x20	; 32
    112e:	51 e4       	ldi	r21, 0x41	; 65
    1130:	fc 01       	movw	r30, r24
    1132:	60 81       	ld	r22, Z
    1134:	71 81       	ldd	r23, Z+1	; 0x01
    1136:	82 81       	ldd	r24, Z+2	; 0x02
    1138:	93 81       	ldd	r25, Z+3	; 0x03
    113a:	0e 94 58 15 	call	0x2ab0	; 0x2ab0 <__mulsf3>
    113e:	cd 53       	subi	r28, 0x3D	; 61
    1140:	df 4f       	sbci	r29, 0xFF	; 255
    1142:	68 83       	st	Y, r22
    1144:	79 83       	std	Y+1, r23	; 0x01
    1146:	8a 83       	std	Y+2, r24	; 0x02
    1148:	9b 83       	std	Y+3, r25	; 0x03
    114a:	c3 5c       	subi	r28, 0xC3	; 195
    114c:	d0 40       	sbci	r29, 0x00	; 0
    114e:	cd 53       	subi	r28, 0x3D	; 61
    1150:	df 4f       	sbci	r29, 0xFF	; 255
    1152:	88 81       	ld	r24, Y
    1154:	99 81       	ldd	r25, Y+1	; 0x01
    1156:	aa 81       	ldd	r26, Y+2	; 0x02
    1158:	bb 81       	ldd	r27, Y+3	; 0x03
    115a:	c3 5c       	subi	r28, 0xC3	; 195
    115c:	d0 40       	sbci	r29, 0x00	; 0
    115e:	af 96       	adiw	r28, 0x2f	; 47
    1160:	8c af       	std	Y+60, r24	; 0x3c
    1162:	9d af       	std	Y+61, r25	; 0x3d
    1164:	ae af       	std	Y+62, r26	; 0x3e
    1166:	bf af       	std	Y+63, r27	; 0x3f
    1168:	af 97       	sbiw	r28, 0x2f	; 47

0000116a <.Loc.105>:
    116a:	8e 01       	movw	r16, r28
    116c:	07 5b       	subi	r16, 0xB7	; 183
    116e:	1f 4f       	sbci	r17, 0xFF	; 255
    1170:	af 96       	adiw	r28, 0x2f	; 47
    1172:	6c ad       	ldd	r22, Y+60	; 0x3c
    1174:	7d ad       	ldd	r23, Y+61	; 0x3d
    1176:	8e ad       	ldd	r24, Y+62	; 0x3e
    1178:	9f ad       	ldd	r25, Y+63	; 0x3f
    117a:	af 97       	sbiw	r28, 0x2f	; 47
    117c:	0e 94 72 14 	call	0x28e4	; 0x28e4 <__fixunssfsi>
    1180:	c9 53       	subi	r28, 0x39	; 57
    1182:	df 4f       	sbci	r29, 0xFF	; 255
    1184:	68 83       	st	Y, r22
    1186:	79 83       	std	Y+1, r23	; 0x01
    1188:	8a 83       	std	Y+2, r24	; 0x02
    118a:	9b 83       	std	Y+3, r25	; 0x03
    118c:	c7 5c       	subi	r28, 0xC7	; 199
    118e:	d0 40       	sbci	r29, 0x00	; 0
    1190:	c9 53       	subi	r28, 0x39	; 57
    1192:	df 4f       	sbci	r29, 0xFF	; 255
    1194:	e8 81       	ld	r30, Y
    1196:	f9 81       	ldd	r31, Y+1	; 0x01
    1198:	c7 5c       	subi	r28, 0xC7	; 199
    119a:	d0 40       	sbci	r29, 0x00	; 0
    119c:	d8 01       	movw	r26, r16
    119e:	11 96       	adiw	r26, 0x01	; 1
    11a0:	fc 93       	st	X, r31
    11a2:	ee 93       	st	-X, r30

000011a4 <.Loc.106>:
		while(__ticks)
    11a4:	26 c0       	rjmp	.+76     	; 0x11f2 <.L44>

000011a6 <.L45>:
    11a6:	ce 01       	movw	r24, r28
    11a8:	85 5b       	subi	r24, 0xB5	; 181
    11aa:	9f 4f       	sbci	r25, 0xFF	; 255
    11ac:	20 e9       	ldi	r18, 0x90	; 144
    11ae:	31 e0       	ldi	r19, 0x01	; 1
    11b0:	dc 01       	movw	r26, r24
    11b2:	2d 93       	st	X+, r18
    11b4:	3c 93       	st	X, r19

000011b6 <.LBB141>:
	__asm__ volatile (
    11b6:	ce 01       	movw	r24, r28
    11b8:	85 5b       	subi	r24, 0xB5	; 181
    11ba:	9f 4f       	sbci	r25, 0xFF	; 255
    11bc:	fc 01       	movw	r30, r24
    11be:	80 81       	ld	r24, Z
    11c0:	91 81       	ldd	r25, Z+1	; 0x01

000011c2 <.L1^B9>:
    11c2:	01 97       	sbiw	r24, 0x01	; 1
    11c4:	f1 f7       	brne	.-4      	; 0x11c2 <.L1^B9>
    11c6:	9e 01       	movw	r18, r28
    11c8:	25 5b       	subi	r18, 0xB5	; 181
    11ca:	3f 4f       	sbci	r19, 0xFF	; 255
    11cc:	d9 01       	movw	r26, r18
    11ce:	8d 93       	st	X+, r24
    11d0:	9c 93       	st	X, r25

000011d2 <.Loc.108>:
	...

000011d4 <.LBE141>:
			__ticks --;
    11d4:	ce 01       	movw	r24, r28
    11d6:	87 5b       	subi	r24, 0xB7	; 183
    11d8:	9f 4f       	sbci	r25, 0xFF	; 255
    11da:	9e 01       	movw	r18, r28
    11dc:	27 5b       	subi	r18, 0xB7	; 183
    11de:	3f 4f       	sbci	r19, 0xFF	; 255
    11e0:	f9 01       	movw	r30, r18
    11e2:	20 81       	ld	r18, Z
    11e4:	31 81       	ldd	r19, Z+1	; 0x01
    11e6:	21 50       	subi	r18, 0x01	; 1
    11e8:	31 09       	sbc	r19, r1
    11ea:	dc 01       	movw	r26, r24
    11ec:	11 96       	adiw	r26, 0x01	; 1
    11ee:	3c 93       	st	X, r19
    11f0:	2e 93       	st	-X, r18

000011f2 <.L44>:
		while(__ticks)
    11f2:	ce 01       	movw	r24, r28
    11f4:	87 5b       	subi	r24, 0xB7	; 183
    11f6:	9f 4f       	sbci	r25, 0xFF	; 255
    11f8:	fc 01       	movw	r30, r24
    11fa:	80 81       	ld	r24, Z
    11fc:	91 81       	ldd	r25, Z+1	; 0x01
    11fe:	00 97       	sbiw	r24, 0x00	; 0
    1200:	91 f6       	brne	.-92     	; 0x11a6 <.L45>

00001202 <.Loc.111>:
		return;
    1202:	3a c0       	rjmp	.+116    	; 0x1278 <.L46>

00001204 <.L70>:
		__ticks = (uint16_t)__tmp;
    1204:	8e 01       	movw	r16, r28
    1206:	07 5b       	subi	r16, 0xB7	; 183
    1208:	1f 4f       	sbci	r17, 0xFF	; 255
    120a:	ce 01       	movw	r24, r28
    120c:	8b 5b       	subi	r24, 0xBB	; 187
    120e:	9f 4f       	sbci	r25, 0xFF	; 255
    1210:	dc 01       	movw	r26, r24
    1212:	6d 91       	ld	r22, X+
    1214:	7d 91       	ld	r23, X+
    1216:	8d 91       	ld	r24, X+
    1218:	9c 91       	ld	r25, X
    121a:	0e 94 72 14 	call	0x28e4	; 0x28e4 <__fixunssfsi>
    121e:	c5 53       	subi	r28, 0x35	; 53
    1220:	df 4f       	sbci	r29, 0xFF	; 255
    1222:	68 83       	st	Y, r22
    1224:	79 83       	std	Y+1, r23	; 0x01
    1226:	8a 83       	std	Y+2, r24	; 0x02
    1228:	9b 83       	std	Y+3, r25	; 0x03
    122a:	cb 5c       	subi	r28, 0xCB	; 203
    122c:	d0 40       	sbci	r29, 0x00	; 0
    122e:	c5 53       	subi	r28, 0x35	; 53
    1230:	df 4f       	sbci	r29, 0xFF	; 255
    1232:	88 81       	ld	r24, Y
    1234:	99 81       	ldd	r25, Y+1	; 0x01
    1236:	cb 5c       	subi	r28, 0xCB	; 203
    1238:	d0 40       	sbci	r29, 0x00	; 0
    123a:	f8 01       	movw	r30, r16
    123c:	91 83       	std	Z+1, r25	; 0x01
    123e:	80 83       	st	Z, r24

00001240 <.L41>:
    1240:	ce 01       	movw	r24, r28
    1242:	83 5b       	subi	r24, 0xB3	; 179
    1244:	9f 4f       	sbci	r25, 0xFF	; 255
    1246:	9e 01       	movw	r18, r28
    1248:	27 5b       	subi	r18, 0xB7	; 183
    124a:	3f 4f       	sbci	r19, 0xFF	; 255
    124c:	d9 01       	movw	r26, r18
    124e:	2d 91       	ld	r18, X+
    1250:	3c 91       	ld	r19, X
    1252:	fc 01       	movw	r30, r24
    1254:	31 83       	std	Z+1, r19	; 0x01
    1256:	20 83       	st	Z, r18

00001258 <.LBB143>:
    1258:	ce 01       	movw	r24, r28
    125a:	83 5b       	subi	r24, 0xB3	; 179
    125c:	9f 4f       	sbci	r25, 0xFF	; 255
    125e:	dc 01       	movw	r26, r24
    1260:	8d 91       	ld	r24, X+
    1262:	9c 91       	ld	r25, X
    1264:	11 97       	sbiw	r26, 0x01	; 1

00001266 <.L1^B10>:
    1266:	01 97       	sbiw	r24, 0x01	; 1
    1268:	f1 f7       	brne	.-4      	; 0x1266 <.L1^B10>
    126a:	9e 01       	movw	r18, r28
    126c:	23 5b       	subi	r18, 0xB3	; 179
    126e:	3f 4f       	sbci	r19, 0xFF	; 255
    1270:	f9 01       	movw	r30, r18
    1272:	91 83       	std	Z+1, r25	; 0x01
    1274:	80 83       	st	Z, r24

00001276 <.Loc.114>:
	...

00001278 <.L46>:
    _delay_ms(10);
}
    1278:	00 00       	nop
    127a:	c2 53       	subi	r28, 0x32	; 50
    127c:	df 4f       	sbci	r29, 0xFF	; 255
    127e:	0f b6       	in	r0, 0x3f	; 63
    1280:	f8 94       	cli
    1282:	de bf       	out	0x3e, r29	; 62
    1284:	0f be       	out	0x3f, r0	; 63
    1286:	cd bf       	out	0x3d, r28	; 61
    1288:	df 91       	pop	r29
    128a:	cf 91       	pop	r28
    128c:	1f 91       	pop	r17
    128e:	0f 91       	pop	r16
    1290:	08 95       	ret

00001292 <usr_loop>:

void usr_loop()
{
    1292:	0f 93       	push	r16
    1294:	1f 93       	push	r17
    1296:	cf 93       	push	r28
    1298:	df 93       	push	r29
    129a:	cd b7       	in	r28, 0x3d	; 61
    129c:	de b7       	in	r29, 0x3e	; 62
    129e:	ce 5c       	subi	r28, 0xCE	; 206
    12a0:	d1 09       	sbc	r29, r1
    12a2:	0f b6       	in	r0, 0x3f	; 63
    12a4:	f8 94       	cli
    12a6:	de bf       	out	0x3e, r29	; 62
    12a8:	0f be       	out	0x3f, r0	; 63
    12aa:	cd bf       	out	0x3d, r28	; 61

000012ac <.Loc.117>:
    PORTD |= (1 << USR_TRIGGER);
    12ac:	8b e2       	ldi	r24, 0x2B	; 43
    12ae:	90 e0       	ldi	r25, 0x00	; 0
    12b0:	dc 01       	movw	r26, r24
    12b2:	2c 91       	ld	r18, X
    12b4:	8b e2       	ldi	r24, 0x2B	; 43
    12b6:	90 e0       	ldi	r25, 0x00	; 0

000012b8 <.Loc.118>:
    12b8:	20 64       	ori	r18, 0x40	; 64
    12ba:	fc 01       	movw	r30, r24
    12bc:	20 83       	st	Z, r18
    12be:	80 e0       	ldi	r24, 0x00	; 0
    12c0:	90 e0       	ldi	r25, 0x00	; 0
    12c2:	a0 e2       	ldi	r26, 0x20	; 32
    12c4:	b1 e4       	ldi	r27, 0x41	; 65
    12c6:	89 83       	std	Y+1, r24	; 0x01
    12c8:	9a 83       	std	Y+2, r25	; 0x02
    12ca:	ab 83       	std	Y+3, r26	; 0x03
    12cc:	bc 83       	std	Y+4, r27	; 0x04

000012ce <.LBB145>:
	__tmp = ((F_CPU) / 3e6) * __us;
    12ce:	2b ea       	ldi	r18, 0xAB	; 171
    12d0:	3a ea       	ldi	r19, 0xAA	; 170
    12d2:	4a ea       	ldi	r20, 0xAA	; 170
    12d4:	50 e4       	ldi	r21, 0x40	; 64
    12d6:	69 81       	ldd	r22, Y+1	; 0x01
    12d8:	7a 81       	ldd	r23, Y+2	; 0x02
    12da:	8b 81       	ldd	r24, Y+3	; 0x03
    12dc:	9c 81       	ldd	r25, Y+4	; 0x04
    12de:	0e 94 58 15 	call	0x2ab0	; 0x2ab0 <__mulsf3>
    12e2:	e3 96       	adiw	r28, 0x33	; 51
    12e4:	6c af       	std	Y+60, r22	; 0x3c
    12e6:	7d af       	std	Y+61, r23	; 0x3d
    12e8:	8e af       	std	Y+62, r24	; 0x3e
    12ea:	9f af       	std	Y+63, r25	; 0x3f
    12ec:	e3 97       	sbiw	r28, 0x33	; 51
    12ee:	e3 96       	adiw	r28, 0x33	; 51
    12f0:	8c ad       	ldd	r24, Y+60	; 0x3c
    12f2:	9d ad       	ldd	r25, Y+61	; 0x3d
    12f4:	ae ad       	ldd	r26, Y+62	; 0x3e
    12f6:	bf ad       	ldd	r27, Y+63	; 0x3f
    12f8:	e3 97       	sbiw	r28, 0x33	; 51
    12fa:	8d 83       	std	Y+5, r24	; 0x05
    12fc:	9e 83       	std	Y+6, r25	; 0x06
    12fe:	af 83       	std	Y+7, r26	; 0x07
    1300:	b8 87       	std	Y+8, r27	; 0x08

00001302 <.Loc.120>:
	__tmp2 = ((F_CPU) / 4e6) * __us;
    1302:	20 e0       	ldi	r18, 0x00	; 0
    1304:	30 e0       	ldi	r19, 0x00	; 0
    1306:	40 e8       	ldi	r20, 0x80	; 128
    1308:	50 e4       	ldi	r21, 0x40	; 64
    130a:	69 81       	ldd	r22, Y+1	; 0x01
    130c:	7a 81       	ldd	r23, Y+2	; 0x02
    130e:	8b 81       	ldd	r24, Y+3	; 0x03
    1310:	9c 81       	ldd	r25, Y+4	; 0x04
    1312:	0e 94 58 15 	call	0x2ab0	; 0x2ab0 <__mulsf3>
    1316:	e7 96       	adiw	r28, 0x37	; 55
    1318:	6c af       	std	Y+60, r22	; 0x3c
    131a:	7d af       	std	Y+61, r23	; 0x3d
    131c:	8e af       	std	Y+62, r24	; 0x3e
    131e:	9f af       	std	Y+63, r25	; 0x3f
    1320:	e7 97       	sbiw	r28, 0x37	; 55
    1322:	e7 96       	adiw	r28, 0x37	; 55
    1324:	8c ad       	ldd	r24, Y+60	; 0x3c
    1326:	9d ad       	ldd	r25, Y+61	; 0x3d
    1328:	ae ad       	ldd	r26, Y+62	; 0x3e
    132a:	bf ad       	ldd	r27, Y+63	; 0x3f
    132c:	e7 97       	sbiw	r28, 0x37	; 55
    132e:	89 87       	std	Y+9, r24	; 0x09
    1330:	9a 87       	std	Y+10, r25	; 0x0a
    1332:	ab 87       	std	Y+11, r26	; 0x0b
    1334:	bc 87       	std	Y+12, r27	; 0x0c

00001336 <.Loc.121>:
	if (__tmp < 1.0)
    1336:	20 e0       	ldi	r18, 0x00	; 0
    1338:	30 e0       	ldi	r19, 0x00	; 0
    133a:	40 e8       	ldi	r20, 0x80	; 128
    133c:	5f e3       	ldi	r21, 0x3F	; 63
    133e:	6d 81       	ldd	r22, Y+5	; 0x05
    1340:	7e 81       	ldd	r23, Y+6	; 0x06
    1342:	8f 81       	ldd	r24, Y+7	; 0x07
    1344:	98 85       	ldd	r25, Y+8	; 0x08
    1346:	0e 94 f4 13 	call	0x27e8	; 0x27e8 <__cmpsf2>
    134a:	88 23       	and	r24, r24
    134c:	1c f4       	brge	.+6      	; 0x1354 <.L127>

0000134e <.Loc.122>:
		__ticks = 1;
    134e:	81 e0       	ldi	r24, 0x01	; 1
    1350:	8d 87       	std	Y+13, r24	; 0x0d
    1352:	13 c1       	rjmp	.+550    	; 0x157a <.L74>

00001354 <.L127>:
	else if (__tmp2 > 65535)
    1354:	20 e0       	ldi	r18, 0x00	; 0
    1356:	3f ef       	ldi	r19, 0xFF	; 255
    1358:	4f e7       	ldi	r20, 0x7F	; 127
    135a:	57 e4       	ldi	r21, 0x47	; 71
    135c:	69 85       	ldd	r22, Y+9	; 0x09
    135e:	7a 85       	ldd	r23, Y+10	; 0x0a
    1360:	8b 85       	ldd	r24, Y+11	; 0x0b
    1362:	9c 85       	ldd	r25, Y+12	; 0x0c
    1364:	0e 94 53 15 	call	0x2aa6	; 0x2aa6 <__gesf2>
    1368:	88 23       	and	r24, r24
    136a:	09 f0       	breq	.+2      	; 0x136e <L0^A>

0000136c <L0^A>:
    136c:	0c f4       	brge	.+2      	; 0x1370 <.Loc.124>

0000136e <L0^A>:
    136e:	c2 c0       	rjmp	.+388    	; 0x14f4 <.L128>

00001370 <.Loc.124>:
		_delay_ms(__us / 1000.0);
    1370:	20 e0       	ldi	r18, 0x00	; 0
    1372:	30 e0       	ldi	r19, 0x00	; 0
    1374:	4a e7       	ldi	r20, 0x7A	; 122
    1376:	54 e4       	ldi	r21, 0x44	; 68
    1378:	69 81       	ldd	r22, Y+1	; 0x01
    137a:	7a 81       	ldd	r23, Y+2	; 0x02
    137c:	8b 81       	ldd	r24, Y+3	; 0x03
    137e:	9c 81       	ldd	r25, Y+4	; 0x04
    1380:	0e 94 f9 13 	call	0x27f2	; 0x27f2 <__divsf3>
    1384:	eb 96       	adiw	r28, 0x3b	; 59
    1386:	6c af       	std	Y+60, r22	; 0x3c
    1388:	7d af       	std	Y+61, r23	; 0x3d
    138a:	8e af       	std	Y+62, r24	; 0x3e
    138c:	9f af       	std	Y+63, r25	; 0x3f
    138e:	eb 97       	sbiw	r28, 0x3b	; 59
    1390:	eb 96       	adiw	r28, 0x3b	; 59
    1392:	8c ad       	ldd	r24, Y+60	; 0x3c
    1394:	9d ad       	ldd	r25, Y+61	; 0x3d
    1396:	ae ad       	ldd	r26, Y+62	; 0x3e
    1398:	bf ad       	ldd	r27, Y+63	; 0x3f
    139a:	eb 97       	sbiw	r28, 0x3b	; 59
    139c:	8e 87       	std	Y+14, r24	; 0x0e
    139e:	9f 87       	std	Y+15, r25	; 0x0f
    13a0:	a8 8b       	std	Y+16, r26	; 0x10
    13a2:	b9 8b       	std	Y+17, r27	; 0x11

000013a4 <.LBB147>:
	__tmp = ((F_CPU) / 4e3) * __ms;
    13a4:	20 e0       	ldi	r18, 0x00	; 0
    13a6:	30 e0       	ldi	r19, 0x00	; 0
    13a8:	4a e7       	ldi	r20, 0x7A	; 122
    13aa:	55 e4       	ldi	r21, 0x45	; 69
    13ac:	6e 85       	ldd	r22, Y+14	; 0x0e
    13ae:	7f 85       	ldd	r23, Y+15	; 0x0f
    13b0:	88 89       	ldd	r24, Y+16	; 0x10
    13b2:	99 89       	ldd	r25, Y+17	; 0x11
    13b4:	0e 94 58 15 	call	0x2ab0	; 0x2ab0 <__mulsf3>
    13b8:	ef 96       	adiw	r28, 0x3f	; 63
    13ba:	6c af       	std	Y+60, r22	; 0x3c
    13bc:	7d af       	std	Y+61, r23	; 0x3d
    13be:	8e af       	std	Y+62, r24	; 0x3e
    13c0:	9f af       	std	Y+63, r25	; 0x3f
    13c2:	ef 97       	sbiw	r28, 0x3f	; 63
    13c4:	ef 96       	adiw	r28, 0x3f	; 63
    13c6:	8c ad       	ldd	r24, Y+60	; 0x3c
    13c8:	9d ad       	ldd	r25, Y+61	; 0x3d
    13ca:	ae ad       	ldd	r26, Y+62	; 0x3e
    13cc:	bf ad       	ldd	r27, Y+63	; 0x3f
    13ce:	ef 97       	sbiw	r28, 0x3f	; 63
    13d0:	8a 8b       	std	Y+18, r24	; 0x12
    13d2:	9b 8b       	std	Y+19, r25	; 0x13
    13d4:	ac 8b       	std	Y+20, r26	; 0x14
    13d6:	bd 8b       	std	Y+21, r27	; 0x15

000013d8 <.Loc.126>:
	if (__tmp < 1.0)
    13d8:	20 e0       	ldi	r18, 0x00	; 0
    13da:	30 e0       	ldi	r19, 0x00	; 0
    13dc:	40 e8       	ldi	r20, 0x80	; 128
    13de:	5f e3       	ldi	r21, 0x3F	; 63
    13e0:	6a 89       	ldd	r22, Y+18	; 0x12
    13e2:	7b 89       	ldd	r23, Y+19	; 0x13
    13e4:	8c 89       	ldd	r24, Y+20	; 0x14
    13e6:	9d 89       	ldd	r25, Y+21	; 0x15
    13e8:	0e 94 f4 13 	call	0x27e8	; 0x27e8 <__cmpsf2>
    13ec:	88 23       	and	r24, r24
    13ee:	2c f4       	brge	.+10     	; 0x13fa <.L129>

000013f0 <.Loc.127>:
		__ticks = 1;
    13f0:	81 e0       	ldi	r24, 0x01	; 1
    13f2:	90 e0       	ldi	r25, 0x00	; 0
    13f4:	9f 8b       	std	Y+23, r25	; 0x17
    13f6:	8e 8b       	std	Y+22, r24	; 0x16
    13f8:	72 c0       	rjmp	.+228    	; 0x14de <.L79>

000013fa <.L129>:
	else if (__tmp > 65535)
    13fa:	20 e0       	ldi	r18, 0x00	; 0
    13fc:	3f ef       	ldi	r19, 0xFF	; 255
    13fe:	4f e7       	ldi	r20, 0x7F	; 127
    1400:	57 e4       	ldi	r21, 0x47	; 71
    1402:	6a 89       	ldd	r22, Y+18	; 0x12
    1404:	7b 89       	ldd	r23, Y+19	; 0x13
    1406:	8c 89       	ldd	r24, Y+20	; 0x14
    1408:	9d 89       	ldd	r25, Y+21	; 0x15
    140a:	0e 94 53 15 	call	0x2aa6	; 0x2aa6 <__gesf2>
    140e:	88 23       	and	r24, r24
    1410:	09 f0       	breq	.+2      	; 0x1414 <L0^A>

00001412 <L0^A>:
    1412:	0c f4       	brge	.+2      	; 0x1416 <.Loc.129>

00001414 <L0^A>:
    1414:	4e c0       	rjmp	.+156    	; 0x14b2 <.L130>

00001416 <.Loc.129>:
		__ticks = (uint16_t) (__ms * 10.0);
    1416:	20 e0       	ldi	r18, 0x00	; 0
    1418:	30 e0       	ldi	r19, 0x00	; 0
    141a:	40 e2       	ldi	r20, 0x20	; 32
    141c:	51 e4       	ldi	r21, 0x41	; 65
    141e:	6e 85       	ldd	r22, Y+14	; 0x0e
    1420:	7f 85       	ldd	r23, Y+15	; 0x0f
    1422:	88 89       	ldd	r24, Y+16	; 0x10
    1424:	99 89       	ldd	r25, Y+17	; 0x11
    1426:	0e 94 58 15 	call	0x2ab0	; 0x2ab0 <__mulsf3>
    142a:	c1 58       	subi	r28, 0x81	; 129
    142c:	df 4f       	sbci	r29, 0xFF	; 255
    142e:	68 83       	st	Y, r22
    1430:	79 83       	std	Y+1, r23	; 0x01
    1432:	8a 83       	std	Y+2, r24	; 0x02
    1434:	9b 83       	std	Y+3, r25	; 0x03
    1436:	cf 57       	subi	r28, 0x7F	; 127
    1438:	d0 40       	sbci	r29, 0x00	; 0
    143a:	c1 58       	subi	r28, 0x81	; 129
    143c:	df 4f       	sbci	r29, 0xFF	; 255
    143e:	88 81       	ld	r24, Y
    1440:	99 81       	ldd	r25, Y+1	; 0x01
    1442:	aa 81       	ldd	r26, Y+2	; 0x02
    1444:	bb 81       	ldd	r27, Y+3	; 0x03
    1446:	cf 57       	subi	r28, 0x7F	; 127
    1448:	d0 40       	sbci	r29, 0x00	; 0
    144a:	a7 96       	adiw	r28, 0x27	; 39
    144c:	8c af       	std	Y+60, r24	; 0x3c
    144e:	9d af       	std	Y+61, r25	; 0x3d
    1450:	ae af       	std	Y+62, r26	; 0x3e
    1452:	bf af       	std	Y+63, r27	; 0x3f
    1454:	a7 97       	sbiw	r28, 0x27	; 39

00001456 <.Loc.130>:
    1456:	a7 96       	adiw	r28, 0x27	; 39
    1458:	6c ad       	ldd	r22, Y+60	; 0x3c
    145a:	7d ad       	ldd	r23, Y+61	; 0x3d
    145c:	8e ad       	ldd	r24, Y+62	; 0x3e
    145e:	9f ad       	ldd	r25, Y+63	; 0x3f
    1460:	a7 97       	sbiw	r28, 0x27	; 39
    1462:	0e 94 72 14 	call	0x28e4	; 0x28e4 <__fixunssfsi>
    1466:	cd 57       	subi	r28, 0x7D	; 125
    1468:	df 4f       	sbci	r29, 0xFF	; 255
    146a:	68 83       	st	Y, r22
    146c:	79 83       	std	Y+1, r23	; 0x01
    146e:	8a 83       	std	Y+2, r24	; 0x02
    1470:	9b 83       	std	Y+3, r25	; 0x03
    1472:	c3 58       	subi	r28, 0x83	; 131
    1474:	d0 40       	sbci	r29, 0x00	; 0
    1476:	cd 57       	subi	r28, 0x7D	; 125
    1478:	df 4f       	sbci	r29, 0xFF	; 255
    147a:	a8 81       	ld	r26, Y
    147c:	b9 81       	ldd	r27, Y+1	; 0x01
    147e:	c3 58       	subi	r28, 0x83	; 131
    1480:	d0 40       	sbci	r29, 0x00	; 0
    1482:	bf 8b       	std	Y+23, r27	; 0x17
    1484:	ae 8b       	std	Y+22, r26	; 0x16

00001486 <.Loc.131>:
		while(__ticks)
    1486:	10 c0       	rjmp	.+32     	; 0x14a8 <.L82>

00001488 <.L83>:
    1488:	80 e9       	ldi	r24, 0x90	; 144
    148a:	91 e0       	ldi	r25, 0x01	; 1
    148c:	99 8f       	std	Y+25, r25	; 0x19
    148e:	88 8f       	std	Y+24, r24	; 0x18

00001490 <.LBB149>:
    1490:	88 8d       	ldd	r24, Y+24	; 0x18
    1492:	99 8d       	ldd	r25, Y+25	; 0x19

00001494 <.L1^B11>:
    1494:	01 97       	sbiw	r24, 0x01	; 1
    1496:	f1 f7       	brne	.-4      	; 0x1494 <.L1^B11>
    1498:	99 8f       	std	Y+25, r25	; 0x19
    149a:	88 8f       	std	Y+24, r24	; 0x18

0000149c <.Loc.133>:
	...

0000149e <.LBE149>:
			__ticks --;
    149e:	8e 89       	ldd	r24, Y+22	; 0x16
    14a0:	9f 89       	ldd	r25, Y+23	; 0x17
    14a2:	01 97       	sbiw	r24, 0x01	; 1
    14a4:	9f 8b       	std	Y+23, r25	; 0x17
    14a6:	8e 8b       	std	Y+22, r24	; 0x16

000014a8 <.L82>:
		while(__ticks)
    14a8:	8e 89       	ldd	r24, Y+22	; 0x16
    14aa:	9f 89       	ldd	r25, Y+23	; 0x17
    14ac:	00 97       	sbiw	r24, 0x00	; 0
    14ae:	61 f7       	brne	.-40     	; 0x1488 <.L83>

000014b0 <.Loc.136>:
		return;
    14b0:	64 c0       	rjmp	.+200    	; 0x157a <.L74>

000014b2 <.L130>:
		__ticks = (uint16_t)__tmp;
    14b2:	6a 89       	ldd	r22, Y+18	; 0x12
    14b4:	7b 89       	ldd	r23, Y+19	; 0x13
    14b6:	8c 89       	ldd	r24, Y+20	; 0x14
    14b8:	9d 89       	ldd	r25, Y+21	; 0x15
    14ba:	0e 94 72 14 	call	0x28e4	; 0x28e4 <__fixunssfsi>
    14be:	c9 57       	subi	r28, 0x79	; 121
    14c0:	df 4f       	sbci	r29, 0xFF	; 255
    14c2:	68 83       	st	Y, r22
    14c4:	79 83       	std	Y+1, r23	; 0x01
    14c6:	8a 83       	std	Y+2, r24	; 0x02
    14c8:	9b 83       	std	Y+3, r25	; 0x03
    14ca:	c7 58       	subi	r28, 0x87	; 135
    14cc:	d0 40       	sbci	r29, 0x00	; 0
    14ce:	c9 57       	subi	r28, 0x79	; 121
    14d0:	df 4f       	sbci	r29, 0xFF	; 255
    14d2:	e8 81       	ld	r30, Y
    14d4:	f9 81       	ldd	r31, Y+1	; 0x01
    14d6:	c7 58       	subi	r28, 0x87	; 135
    14d8:	d0 40       	sbci	r29, 0x00	; 0
    14da:	ff 8b       	std	Y+23, r31	; 0x17
    14dc:	ee 8b       	std	Y+22, r30	; 0x16

000014de <.L79>:
    14de:	8e 89       	ldd	r24, Y+22	; 0x16
    14e0:	9f 89       	ldd	r25, Y+23	; 0x17
    14e2:	9b 8f       	std	Y+27, r25	; 0x1b
    14e4:	8a 8f       	std	Y+26, r24	; 0x1a

000014e6 <.LBB151>:
    14e6:	8a 8d       	ldd	r24, Y+26	; 0x1a
    14e8:	9b 8d       	ldd	r25, Y+27	; 0x1b

000014ea <.L1^B12>:
    14ea:	01 97       	sbiw	r24, 0x01	; 1
    14ec:	f1 f7       	brne	.-4      	; 0x14ea <.L1^B12>
    14ee:	9b 8f       	std	Y+27, r25	; 0x1b
    14f0:	8a 8f       	std	Y+26, r24	; 0x1a

000014f2 <.Loc.139>:
}
    14f2:	43 c0       	rjmp	.+134    	; 0x157a <.L74>

000014f4 <.L128>:
	else if (__tmp > 255)
    14f4:	20 e0       	ldi	r18, 0x00	; 0
    14f6:	30 e0       	ldi	r19, 0x00	; 0
    14f8:	4f e7       	ldi	r20, 0x7F	; 127
    14fa:	53 e4       	ldi	r21, 0x43	; 67
    14fc:	6d 81       	ldd	r22, Y+5	; 0x05
    14fe:	7e 81       	ldd	r23, Y+6	; 0x06
    1500:	8f 81       	ldd	r24, Y+7	; 0x07
    1502:	98 85       	ldd	r25, Y+8	; 0x08
    1504:	0e 94 53 15 	call	0x2aa6	; 0x2aa6 <__gesf2>
    1508:	88 23       	and	r24, r24
    150a:	19 f1       	breq	.+70     	; 0x1552 <.L131>
    150c:	14 f1       	brlt	.+68     	; 0x1552 <.L131>

0000150e <.LBB153>:
		uint16_t __ticks=(uint16_t)__tmp2;
    150e:	69 85       	ldd	r22, Y+9	; 0x09
    1510:	7a 85       	ldd	r23, Y+10	; 0x0a
    1512:	8b 85       	ldd	r24, Y+11	; 0x0b
    1514:	9c 85       	ldd	r25, Y+12	; 0x0c
    1516:	0e 94 72 14 	call	0x28e4	; 0x28e4 <__fixunssfsi>
    151a:	c5 57       	subi	r28, 0x75	; 117
    151c:	df 4f       	sbci	r29, 0xFF	; 255
    151e:	68 83       	st	Y, r22
    1520:	79 83       	std	Y+1, r23	; 0x01
    1522:	8a 83       	std	Y+2, r24	; 0x02
    1524:	9b 83       	std	Y+3, r25	; 0x03
    1526:	cb 58       	subi	r28, 0x8B	; 139
    1528:	d0 40       	sbci	r29, 0x00	; 0
    152a:	c5 57       	subi	r28, 0x75	; 117
    152c:	df 4f       	sbci	r29, 0xFF	; 255
    152e:	88 81       	ld	r24, Y
    1530:	99 81       	ldd	r25, Y+1	; 0x01
    1532:	cb 58       	subi	r28, 0x8B	; 139
    1534:	d0 40       	sbci	r29, 0x00	; 0
    1536:	9d 8f       	std	Y+29, r25	; 0x1d
    1538:	8c 8f       	std	Y+28, r24	; 0x1c
    153a:	8c 8d       	ldd	r24, Y+28	; 0x1c
    153c:	9d 8d       	ldd	r25, Y+29	; 0x1d
    153e:	9f 8f       	std	Y+31, r25	; 0x1f
    1540:	8e 8f       	std	Y+30, r24	; 0x1e

00001542 <.LBB154>:
	__asm__ volatile (
    1542:	8e 8d       	ldd	r24, Y+30	; 0x1e
    1544:	9f 8d       	ldd	r25, Y+31	; 0x1f

00001546 <.L1^B13>:
    1546:	01 97       	sbiw	r24, 0x01	; 1
    1548:	f1 f7       	brne	.-4      	; 0x1546 <.L1^B13>
    154a:	9f 8f       	std	Y+31, r25	; 0x1f
    154c:	8e 8f       	std	Y+30, r24	; 0x1e

0000154e <.Loc.143>:
	...

00001550 <.LBE154>:
		return;
    1550:	1b c0       	rjmp	.+54     	; 0x1588 <.L87>

00001552 <.L131>:
		__ticks = (uint8_t)__tmp;
    1552:	6d 81       	ldd	r22, Y+5	; 0x05
    1554:	7e 81       	ldd	r23, Y+6	; 0x06
    1556:	8f 81       	ldd	r24, Y+7	; 0x07
    1558:	98 85       	ldd	r25, Y+8	; 0x08
    155a:	0e 94 72 14 	call	0x28e4	; 0x28e4 <__fixunssfsi>
    155e:	c1 57       	subi	r28, 0x71	; 113
    1560:	df 4f       	sbci	r29, 0xFF	; 255
    1562:	68 83       	st	Y, r22
    1564:	79 83       	std	Y+1, r23	; 0x01
    1566:	8a 83       	std	Y+2, r24	; 0x02
    1568:	9b 83       	std	Y+3, r25	; 0x03
    156a:	cf 58       	subi	r28, 0x8F	; 143
    156c:	d0 40       	sbci	r29, 0x00	; 0
    156e:	c1 57       	subi	r28, 0x71	; 113
    1570:	df 4f       	sbci	r29, 0xFF	; 255
    1572:	98 81       	ld	r25, Y
    1574:	cf 58       	subi	r28, 0x8F	; 143
    1576:	d0 40       	sbci	r29, 0x00	; 0
    1578:	9d 87       	std	Y+13, r25	; 0x0d

0000157a <.L74>:
    157a:	8d 85       	ldd	r24, Y+13	; 0x0d
    157c:	88 a3       	std	Y+32, r24	; 0x20

0000157e <.LBB156>:
	__asm__ volatile (
    157e:	88 a1       	ldd	r24, Y+32	; 0x20

00001580 <.L1^B14>:
    1580:	8a 95       	dec	r24
    1582:	f1 f7       	brne	.-4      	; 0x1580 <.L1^B14>
    1584:	88 a3       	std	Y+32, r24	; 0x20

00001586 <.Loc.147>:
	...

00001588 <.L87>:
    _delay_us(10);
    PORTD &= ~(1 << USR_ECHO);
    1588:	8b e2       	ldi	r24, 0x2B	; 43
    158a:	90 e0       	ldi	r25, 0x00	; 0
    158c:	dc 01       	movw	r26, r24
    158e:	2c 91       	ld	r18, X

00001590 <.Loc.149>:
    1590:	8b e2       	ldi	r24, 0x2B	; 43
    1592:	90 e0       	ldi	r25, 0x00	; 0

00001594 <.Loc.150>:
    1594:	2f 77       	andi	r18, 0x7F	; 127
    1596:	fc 01       	movw	r30, r24
    1598:	20 83       	st	Z, r18

0000159a <.Loc.151>:
	...

0000159c <.L88>:
    // Wachten op de echo-puls
    while (!(PIND & (1 << USR_ECHO)));
    159c:	89 e2       	ldi	r24, 0x29	; 41
    159e:	90 e0       	ldi	r25, 0x00	; 0
    15a0:	dc 01       	movw	r26, r24
    15a2:	8c 91       	ld	r24, X

000015a4 <.Loc.153>:
    15a4:	88 23       	and	r24, r24
    15a6:	d4 f7       	brge	.-12     	; 0x159c <.L88>

000015a8 <.Loc.154>:
    // Starttijd van de echo-puls vastleggen
    duration = 0;
    15a8:	10 92 08 02 	sts	0x0208, r1	; 0x800208 <duration>
    15ac:	10 92 09 02 	sts	0x0209, r1	; 0x800209 <duration+0x1>
    15b0:	10 92 0a 02 	sts	0x020A, r1	; 0x80020a <duration+0x2>
    15b4:	10 92 0b 02 	sts	0x020B, r1	; 0x80020b <duration+0x3>

000015b8 <.Loc.155>:
    while (PIND & (1 << USR_ECHO))
    15b8:	95 c1       	rjmp	.+810    	; 0x18e4 <.L89>

000015ba <.L106>:
    15ba:	80 e0       	ldi	r24, 0x00	; 0
    15bc:	90 e0       	ldi	r25, 0x00	; 0
    15be:	a0 e8       	ldi	r26, 0x80	; 128
    15c0:	bf e3       	ldi	r27, 0x3F	; 63
    15c2:	89 a3       	std	Y+33, r24	; 0x21
    15c4:	9a a3       	std	Y+34, r25	; 0x22
    15c6:	ab a3       	std	Y+35, r26	; 0x23
    15c8:	bc a3       	std	Y+36, r27	; 0x24

000015ca <.LBB158>:
	__tmp = ((F_CPU) / 3e6) * __us;
    15ca:	2b ea       	ldi	r18, 0xAB	; 171
    15cc:	3a ea       	ldi	r19, 0xAA	; 170
    15ce:	4a ea       	ldi	r20, 0xAA	; 170
    15d0:	50 e4       	ldi	r21, 0x40	; 64
    15d2:	69 a1       	ldd	r22, Y+33	; 0x21
    15d4:	7a a1       	ldd	r23, Y+34	; 0x22
    15d6:	8b a1       	ldd	r24, Y+35	; 0x23
    15d8:	9c a1       	ldd	r25, Y+36	; 0x24
    15da:	0e 94 58 15 	call	0x2ab0	; 0x2ab0 <__mulsf3>
    15de:	cd 56       	subi	r28, 0x6D	; 109
    15e0:	df 4f       	sbci	r29, 0xFF	; 255
    15e2:	68 83       	st	Y, r22
    15e4:	79 83       	std	Y+1, r23	; 0x01
    15e6:	8a 83       	std	Y+2, r24	; 0x02
    15e8:	9b 83       	std	Y+3, r25	; 0x03
    15ea:	c3 59       	subi	r28, 0x93	; 147
    15ec:	d0 40       	sbci	r29, 0x00	; 0
    15ee:	cd 56       	subi	r28, 0x6D	; 109
    15f0:	df 4f       	sbci	r29, 0xFF	; 255
    15f2:	88 81       	ld	r24, Y
    15f4:	99 81       	ldd	r25, Y+1	; 0x01
    15f6:	aa 81       	ldd	r26, Y+2	; 0x02
    15f8:	bb 81       	ldd	r27, Y+3	; 0x03
    15fa:	c3 59       	subi	r28, 0x93	; 147
    15fc:	d0 40       	sbci	r29, 0x00	; 0
    15fe:	8d a3       	std	Y+37, r24	; 0x25
    1600:	9e a3       	std	Y+38, r25	; 0x26
    1602:	af a3       	std	Y+39, r26	; 0x27
    1604:	b8 a7       	std	Y+40, r27	; 0x28

00001606 <.Loc.157>:
	__tmp2 = ((F_CPU) / 4e6) * __us;
    1606:	20 e0       	ldi	r18, 0x00	; 0
    1608:	30 e0       	ldi	r19, 0x00	; 0
    160a:	40 e8       	ldi	r20, 0x80	; 128
    160c:	50 e4       	ldi	r21, 0x40	; 64
    160e:	69 a1       	ldd	r22, Y+33	; 0x21
    1610:	7a a1       	ldd	r23, Y+34	; 0x22
    1612:	8b a1       	ldd	r24, Y+35	; 0x23
    1614:	9c a1       	ldd	r25, Y+36	; 0x24
    1616:	0e 94 58 15 	call	0x2ab0	; 0x2ab0 <__mulsf3>
    161a:	c9 56       	subi	r28, 0x69	; 105
    161c:	df 4f       	sbci	r29, 0xFF	; 255
    161e:	68 83       	st	Y, r22
    1620:	79 83       	std	Y+1, r23	; 0x01
    1622:	8a 83       	std	Y+2, r24	; 0x02
    1624:	9b 83       	std	Y+3, r25	; 0x03
    1626:	c7 59       	subi	r28, 0x97	; 151
    1628:	d0 40       	sbci	r29, 0x00	; 0
    162a:	c9 56       	subi	r28, 0x69	; 105
    162c:	df 4f       	sbci	r29, 0xFF	; 255
    162e:	88 81       	ld	r24, Y
    1630:	99 81       	ldd	r25, Y+1	; 0x01
    1632:	aa 81       	ldd	r26, Y+2	; 0x02
    1634:	bb 81       	ldd	r27, Y+3	; 0x03
    1636:	c7 59       	subi	r28, 0x97	; 151
    1638:	d0 40       	sbci	r29, 0x00	; 0
    163a:	89 a7       	std	Y+41, r24	; 0x29
    163c:	9a a7       	std	Y+42, r25	; 0x2a
    163e:	ab a7       	std	Y+43, r26	; 0x2b
    1640:	bc a7       	std	Y+44, r27	; 0x2c

00001642 <.Loc.158>:
	if (__tmp < 1.0)
    1642:	20 e0       	ldi	r18, 0x00	; 0
    1644:	30 e0       	ldi	r19, 0x00	; 0
    1646:	40 e8       	ldi	r20, 0x80	; 128
    1648:	5f e3       	ldi	r21, 0x3F	; 63
    164a:	6d a1       	ldd	r22, Y+37	; 0x25
    164c:	7e a1       	ldd	r23, Y+38	; 0x26
    164e:	8f a1       	ldd	r24, Y+39	; 0x27
    1650:	98 a5       	ldd	r25, Y+40	; 0x28
    1652:	0e 94 f4 13 	call	0x27e8	; 0x27e8 <__cmpsf2>
    1656:	88 23       	and	r24, r24
    1658:	1c f4       	brge	.+6      	; 0x1660 <.L132>

0000165a <.Loc.159>:
		__ticks = 1;
    165a:	81 e0       	ldi	r24, 0x01	; 1
    165c:	8d a7       	std	Y+45, r24	; 0x2d
    165e:	1b c1       	rjmp	.+566    	; 0x1896 <.L92>

00001660 <.L132>:
	else if (__tmp2 > 65535)
    1660:	20 e0       	ldi	r18, 0x00	; 0
    1662:	3f ef       	ldi	r19, 0xFF	; 255
    1664:	4f e7       	ldi	r20, 0x7F	; 127
    1666:	57 e4       	ldi	r21, 0x47	; 71
    1668:	69 a5       	ldd	r22, Y+41	; 0x29
    166a:	7a a5       	ldd	r23, Y+42	; 0x2a
    166c:	8b a5       	ldd	r24, Y+43	; 0x2b
    166e:	9c a5       	ldd	r25, Y+44	; 0x2c
    1670:	0e 94 53 15 	call	0x2aa6	; 0x2aa6 <__gesf2>
    1674:	88 23       	and	r24, r24
    1676:	09 f0       	breq	.+2      	; 0x167a <L0^A>

00001678 <L0^A>:
    1678:	0c f4       	brge	.+2      	; 0x167c <.Loc.161>

0000167a <L0^A>:
    167a:	ca c0       	rjmp	.+404    	; 0x1810 <.L133>

0000167c <.Loc.161>:
		_delay_ms(__us / 1000.0);
    167c:	20 e0       	ldi	r18, 0x00	; 0
    167e:	30 e0       	ldi	r19, 0x00	; 0
    1680:	4a e7       	ldi	r20, 0x7A	; 122
    1682:	54 e4       	ldi	r21, 0x44	; 68
    1684:	69 a1       	ldd	r22, Y+33	; 0x21
    1686:	7a a1       	ldd	r23, Y+34	; 0x22
    1688:	8b a1       	ldd	r24, Y+35	; 0x23
    168a:	9c a1       	ldd	r25, Y+36	; 0x24
    168c:	0e 94 f9 13 	call	0x27f2	; 0x27f2 <__divsf3>
    1690:	c5 56       	subi	r28, 0x65	; 101
    1692:	df 4f       	sbci	r29, 0xFF	; 255
    1694:	68 83       	st	Y, r22
    1696:	79 83       	std	Y+1, r23	; 0x01
    1698:	8a 83       	std	Y+2, r24	; 0x02
    169a:	9b 83       	std	Y+3, r25	; 0x03
    169c:	cb 59       	subi	r28, 0x9B	; 155
    169e:	d0 40       	sbci	r29, 0x00	; 0
    16a0:	c5 56       	subi	r28, 0x65	; 101
    16a2:	df 4f       	sbci	r29, 0xFF	; 255
    16a4:	88 81       	ld	r24, Y
    16a6:	99 81       	ldd	r25, Y+1	; 0x01
    16a8:	aa 81       	ldd	r26, Y+2	; 0x02
    16aa:	bb 81       	ldd	r27, Y+3	; 0x03
    16ac:	cb 59       	subi	r28, 0x9B	; 155
    16ae:	d0 40       	sbci	r29, 0x00	; 0
    16b0:	8e a7       	std	Y+46, r24	; 0x2e
    16b2:	9f a7       	std	Y+47, r25	; 0x2f
    16b4:	a8 ab       	std	Y+48, r26	; 0x30
    16b6:	b9 ab       	std	Y+49, r27	; 0x31

000016b8 <.LBB160>:
	__tmp = ((F_CPU) / 4e3) * __ms;
    16b8:	20 e0       	ldi	r18, 0x00	; 0
    16ba:	30 e0       	ldi	r19, 0x00	; 0
    16bc:	4a e7       	ldi	r20, 0x7A	; 122
    16be:	55 e4       	ldi	r21, 0x45	; 69
    16c0:	6e a5       	ldd	r22, Y+46	; 0x2e
    16c2:	7f a5       	ldd	r23, Y+47	; 0x2f
    16c4:	88 a9       	ldd	r24, Y+48	; 0x30
    16c6:	99 a9       	ldd	r25, Y+49	; 0x31
    16c8:	0e 94 58 15 	call	0x2ab0	; 0x2ab0 <__mulsf3>
    16cc:	c1 56       	subi	r28, 0x61	; 97
    16ce:	df 4f       	sbci	r29, 0xFF	; 255
    16d0:	68 83       	st	Y, r22
    16d2:	79 83       	std	Y+1, r23	; 0x01
    16d4:	8a 83       	std	Y+2, r24	; 0x02
    16d6:	9b 83       	std	Y+3, r25	; 0x03
    16d8:	cf 59       	subi	r28, 0x9F	; 159
    16da:	d0 40       	sbci	r29, 0x00	; 0
    16dc:	c1 56       	subi	r28, 0x61	; 97
    16de:	df 4f       	sbci	r29, 0xFF	; 255
    16e0:	88 81       	ld	r24, Y
    16e2:	99 81       	ldd	r25, Y+1	; 0x01
    16e4:	aa 81       	ldd	r26, Y+2	; 0x02
    16e6:	bb 81       	ldd	r27, Y+3	; 0x03
    16e8:	cf 59       	subi	r28, 0x9F	; 159
    16ea:	d0 40       	sbci	r29, 0x00	; 0
    16ec:	8a ab       	std	Y+50, r24	; 0x32
    16ee:	9b ab       	std	Y+51, r25	; 0x33
    16f0:	ac ab       	std	Y+52, r26	; 0x34
    16f2:	bd ab       	std	Y+53, r27	; 0x35

000016f4 <.Loc.163>:
	if (__tmp < 1.0)
    16f4:	20 e0       	ldi	r18, 0x00	; 0
    16f6:	30 e0       	ldi	r19, 0x00	; 0
    16f8:	40 e8       	ldi	r20, 0x80	; 128
    16fa:	5f e3       	ldi	r21, 0x3F	; 63
    16fc:	6a a9       	ldd	r22, Y+50	; 0x32
    16fe:	7b a9       	ldd	r23, Y+51	; 0x33
    1700:	8c a9       	ldd	r24, Y+52	; 0x34
    1702:	9d a9       	ldd	r25, Y+53	; 0x35
    1704:	0e 94 f4 13 	call	0x27e8	; 0x27e8 <__cmpsf2>
    1708:	88 23       	and	r24, r24
    170a:	2c f4       	brge	.+10     	; 0x1716 <.L134>

0000170c <.Loc.164>:
		__ticks = 1;
    170c:	81 e0       	ldi	r24, 0x01	; 1
    170e:	90 e0       	ldi	r25, 0x00	; 0
    1710:	9f ab       	std	Y+55, r25	; 0x37
    1712:	8e ab       	std	Y+54, r24	; 0x36
    1714:	72 c0       	rjmp	.+228    	; 0x17fa <.L97>

00001716 <.L134>:
	else if (__tmp > 65535)
    1716:	20 e0       	ldi	r18, 0x00	; 0
    1718:	3f ef       	ldi	r19, 0xFF	; 255
    171a:	4f e7       	ldi	r20, 0x7F	; 127
    171c:	57 e4       	ldi	r21, 0x47	; 71
    171e:	6a a9       	ldd	r22, Y+50	; 0x32
    1720:	7b a9       	ldd	r23, Y+51	; 0x33
    1722:	8c a9       	ldd	r24, Y+52	; 0x34
    1724:	9d a9       	ldd	r25, Y+53	; 0x35
    1726:	0e 94 53 15 	call	0x2aa6	; 0x2aa6 <__gesf2>
    172a:	88 23       	and	r24, r24
    172c:	09 f0       	breq	.+2      	; 0x1730 <L0^A>

0000172e <L0^A>:
    172e:	0c f4       	brge	.+2      	; 0x1732 <.Loc.166>

00001730 <L0^A>:
    1730:	4e c0       	rjmp	.+156    	; 0x17ce <.L135>

00001732 <.Loc.166>:
		__ticks = (uint16_t) (__ms * 10.0);
    1732:	20 e0       	ldi	r18, 0x00	; 0
    1734:	30 e0       	ldi	r19, 0x00	; 0
    1736:	40 e2       	ldi	r20, 0x20	; 32
    1738:	51 e4       	ldi	r21, 0x41	; 65
    173a:	6e a5       	ldd	r22, Y+46	; 0x2e
    173c:	7f a5       	ldd	r23, Y+47	; 0x2f
    173e:	88 a9       	ldd	r24, Y+48	; 0x30
    1740:	99 a9       	ldd	r25, Y+49	; 0x31
    1742:	0e 94 58 15 	call	0x2ab0	; 0x2ab0 <__mulsf3>
    1746:	cd 55       	subi	r28, 0x5D	; 93
    1748:	df 4f       	sbci	r29, 0xFF	; 255
    174a:	68 83       	st	Y, r22
    174c:	79 83       	std	Y+1, r23	; 0x01
    174e:	8a 83       	std	Y+2, r24	; 0x02
    1750:	9b 83       	std	Y+3, r25	; 0x03
    1752:	c3 5a       	subi	r28, 0xA3	; 163
    1754:	d0 40       	sbci	r29, 0x00	; 0
    1756:	cd 55       	subi	r28, 0x5D	; 93
    1758:	df 4f       	sbci	r29, 0xFF	; 255
    175a:	88 81       	ld	r24, Y
    175c:	99 81       	ldd	r25, Y+1	; 0x01
    175e:	aa 81       	ldd	r26, Y+2	; 0x02
    1760:	bb 81       	ldd	r27, Y+3	; 0x03
    1762:	c3 5a       	subi	r28, 0xA3	; 163
    1764:	d0 40       	sbci	r29, 0x00	; 0
    1766:	ab 96       	adiw	r28, 0x2b	; 43
    1768:	8c af       	std	Y+60, r24	; 0x3c
    176a:	9d af       	std	Y+61, r25	; 0x3d
    176c:	ae af       	std	Y+62, r26	; 0x3e
    176e:	bf af       	std	Y+63, r27	; 0x3f
    1770:	ab 97       	sbiw	r28, 0x2b	; 43

00001772 <.Loc.167>:
    1772:	ab 96       	adiw	r28, 0x2b	; 43
    1774:	6c ad       	ldd	r22, Y+60	; 0x3c
    1776:	7d ad       	ldd	r23, Y+61	; 0x3d
    1778:	8e ad       	ldd	r24, Y+62	; 0x3e
    177a:	9f ad       	ldd	r25, Y+63	; 0x3f
    177c:	ab 97       	sbiw	r28, 0x2b	; 43
    177e:	0e 94 72 14 	call	0x28e4	; 0x28e4 <__fixunssfsi>
    1782:	c9 55       	subi	r28, 0x59	; 89
    1784:	df 4f       	sbci	r29, 0xFF	; 255
    1786:	68 83       	st	Y, r22
    1788:	79 83       	std	Y+1, r23	; 0x01
    178a:	8a 83       	std	Y+2, r24	; 0x02
    178c:	9b 83       	std	Y+3, r25	; 0x03
    178e:	c7 5a       	subi	r28, 0xA7	; 167
    1790:	d0 40       	sbci	r29, 0x00	; 0
    1792:	c9 55       	subi	r28, 0x59	; 89
    1794:	df 4f       	sbci	r29, 0xFF	; 255
    1796:	a8 81       	ld	r26, Y
    1798:	b9 81       	ldd	r27, Y+1	; 0x01
    179a:	c7 5a       	subi	r28, 0xA7	; 167
    179c:	d0 40       	sbci	r29, 0x00	; 0
    179e:	bf ab       	std	Y+55, r27	; 0x37
    17a0:	ae ab       	std	Y+54, r26	; 0x36

000017a2 <.Loc.168>:
		while(__ticks)
    17a2:	10 c0       	rjmp	.+32     	; 0x17c4 <.L100>

000017a4 <.L101>:
    17a4:	80 e9       	ldi	r24, 0x90	; 144
    17a6:	91 e0       	ldi	r25, 0x01	; 1
    17a8:	99 af       	std	Y+57, r25	; 0x39
    17aa:	88 af       	std	Y+56, r24	; 0x38

000017ac <.LBB162>:
	__asm__ volatile (
    17ac:	88 ad       	ldd	r24, Y+56	; 0x38
    17ae:	99 ad       	ldd	r25, Y+57	; 0x39

000017b0 <.L1^B15>:
    17b0:	01 97       	sbiw	r24, 0x01	; 1
    17b2:	f1 f7       	brne	.-4      	; 0x17b0 <.L1^B15>
    17b4:	99 af       	std	Y+57, r25	; 0x39
    17b6:	88 af       	std	Y+56, r24	; 0x38

000017b8 <.Loc.170>:
	...

000017ba <.LBE162>:
			__ticks --;
    17ba:	8e a9       	ldd	r24, Y+54	; 0x36
    17bc:	9f a9       	ldd	r25, Y+55	; 0x37
    17be:	01 97       	sbiw	r24, 0x01	; 1
    17c0:	9f ab       	std	Y+55, r25	; 0x37
    17c2:	8e ab       	std	Y+54, r24	; 0x36

000017c4 <.L100>:
		while(__ticks)
    17c4:	8e a9       	ldd	r24, Y+54	; 0x36
    17c6:	9f a9       	ldd	r25, Y+55	; 0x37
    17c8:	00 97       	sbiw	r24, 0x00	; 0
    17ca:	61 f7       	brne	.-40     	; 0x17a4 <.L101>

000017cc <.Loc.173>:
		return;
    17cc:	64 c0       	rjmp	.+200    	; 0x1896 <.L92>

000017ce <.L135>:
		__ticks = (uint16_t)__tmp;
    17ce:	6a a9       	ldd	r22, Y+50	; 0x32
    17d0:	7b a9       	ldd	r23, Y+51	; 0x33
    17d2:	8c a9       	ldd	r24, Y+52	; 0x34
    17d4:	9d a9       	ldd	r25, Y+53	; 0x35
    17d6:	0e 94 72 14 	call	0x28e4	; 0x28e4 <__fixunssfsi>
    17da:	c5 55       	subi	r28, 0x55	; 85
    17dc:	df 4f       	sbci	r29, 0xFF	; 255
    17de:	68 83       	st	Y, r22
    17e0:	79 83       	std	Y+1, r23	; 0x01
    17e2:	8a 83       	std	Y+2, r24	; 0x02
    17e4:	9b 83       	std	Y+3, r25	; 0x03
    17e6:	cb 5a       	subi	r28, 0xAB	; 171
    17e8:	d0 40       	sbci	r29, 0x00	; 0
    17ea:	c5 55       	subi	r28, 0x55	; 85
    17ec:	df 4f       	sbci	r29, 0xFF	; 255
    17ee:	e8 81       	ld	r30, Y
    17f0:	f9 81       	ldd	r31, Y+1	; 0x01
    17f2:	cb 5a       	subi	r28, 0xAB	; 171
    17f4:	d0 40       	sbci	r29, 0x00	; 0
    17f6:	ff ab       	std	Y+55, r31	; 0x37
    17f8:	ee ab       	std	Y+54, r30	; 0x36

000017fa <.L97>:
    17fa:	8e a9       	ldd	r24, Y+54	; 0x36
    17fc:	9f a9       	ldd	r25, Y+55	; 0x37
    17fe:	9b af       	std	Y+59, r25	; 0x3b
    1800:	8a af       	std	Y+58, r24	; 0x3a

00001802 <.LBB164>:
    1802:	8a ad       	ldd	r24, Y+58	; 0x3a
    1804:	9b ad       	ldd	r25, Y+59	; 0x3b

00001806 <.L1^B16>:
    1806:	01 97       	sbiw	r24, 0x01	; 1
    1808:	f1 f7       	brne	.-4      	; 0x1806 <.L1^B16>
    180a:	9b af       	std	Y+59, r25	; 0x3b
    180c:	8a af       	std	Y+58, r24	; 0x3a

0000180e <.Loc.176>:
}
    180e:	43 c0       	rjmp	.+134    	; 0x1896 <.L92>

00001810 <.L133>:
	else if (__tmp > 255)
    1810:	20 e0       	ldi	r18, 0x00	; 0
    1812:	30 e0       	ldi	r19, 0x00	; 0
    1814:	4f e7       	ldi	r20, 0x7F	; 127
    1816:	53 e4       	ldi	r21, 0x43	; 67
    1818:	6d a1       	ldd	r22, Y+37	; 0x25
    181a:	7e a1       	ldd	r23, Y+38	; 0x26
    181c:	8f a1       	ldd	r24, Y+39	; 0x27
    181e:	98 a5       	ldd	r25, Y+40	; 0x28
    1820:	0e 94 53 15 	call	0x2aa6	; 0x2aa6 <__gesf2>
    1824:	88 23       	and	r24, r24
    1826:	19 f1       	breq	.+70     	; 0x186e <.L136>
    1828:	14 f1       	brlt	.+68     	; 0x186e <.L136>

0000182a <.LBB166>:
		uint16_t __ticks=(uint16_t)__tmp2;
    182a:	69 a5       	ldd	r22, Y+41	; 0x29
    182c:	7a a5       	ldd	r23, Y+42	; 0x2a
    182e:	8b a5       	ldd	r24, Y+43	; 0x2b
    1830:	9c a5       	ldd	r25, Y+44	; 0x2c
    1832:	0e 94 72 14 	call	0x28e4	; 0x28e4 <__fixunssfsi>
    1836:	c1 55       	subi	r28, 0x51	; 81
    1838:	df 4f       	sbci	r29, 0xFF	; 255
    183a:	68 83       	st	Y, r22
    183c:	79 83       	std	Y+1, r23	; 0x01
    183e:	8a 83       	std	Y+2, r24	; 0x02
    1840:	9b 83       	std	Y+3, r25	; 0x03
    1842:	cf 5a       	subi	r28, 0xAF	; 175
    1844:	d0 40       	sbci	r29, 0x00	; 0
    1846:	c1 55       	subi	r28, 0x51	; 81
    1848:	df 4f       	sbci	r29, 0xFF	; 255
    184a:	88 81       	ld	r24, Y
    184c:	99 81       	ldd	r25, Y+1	; 0x01
    184e:	cf 5a       	subi	r28, 0xAF	; 175
    1850:	d0 40       	sbci	r29, 0x00	; 0
    1852:	9d af       	std	Y+61, r25	; 0x3d
    1854:	8c af       	std	Y+60, r24	; 0x3c
    1856:	8c ad       	ldd	r24, Y+60	; 0x3c
    1858:	9d ad       	ldd	r25, Y+61	; 0x3d
    185a:	9f af       	std	Y+63, r25	; 0x3f
    185c:	8e af       	std	Y+62, r24	; 0x3e

0000185e <.LBB167>:
	__asm__ volatile (
    185e:	8e ad       	ldd	r24, Y+62	; 0x3e
    1860:	9f ad       	ldd	r25, Y+63	; 0x3f

00001862 <.L1^B17>:
    1862:	01 97       	sbiw	r24, 0x01	; 1
    1864:	f1 f7       	brne	.-4      	; 0x1862 <.L1^B17>
    1866:	9f af       	std	Y+63, r25	; 0x3f
    1868:	8e af       	std	Y+62, r24	; 0x3e

0000186a <.Loc.180>:
	...

0000186c <.LBE167>:
		return;
    186c:	28 c0       	rjmp	.+80     	; 0x18be <.L105>

0000186e <.L136>:
		__ticks = (uint8_t)__tmp;
    186e:	6d a1       	ldd	r22, Y+37	; 0x25
    1870:	7e a1       	ldd	r23, Y+38	; 0x26
    1872:	8f a1       	ldd	r24, Y+39	; 0x27
    1874:	98 a5       	ldd	r25, Y+40	; 0x28
    1876:	0e 94 72 14 	call	0x28e4	; 0x28e4 <__fixunssfsi>
    187a:	cd 54       	subi	r28, 0x4D	; 77
    187c:	df 4f       	sbci	r29, 0xFF	; 255
    187e:	68 83       	st	Y, r22
    1880:	79 83       	std	Y+1, r23	; 0x01
    1882:	8a 83       	std	Y+2, r24	; 0x02
    1884:	9b 83       	std	Y+3, r25	; 0x03
    1886:	c3 5b       	subi	r28, 0xB3	; 179
    1888:	d0 40       	sbci	r29, 0x00	; 0
    188a:	cd 54       	subi	r28, 0x4D	; 77
    188c:	df 4f       	sbci	r29, 0xFF	; 255
    188e:	98 81       	ld	r25, Y
    1890:	c3 5b       	subi	r28, 0xB3	; 179
    1892:	d0 40       	sbci	r29, 0x00	; 0
    1894:	9d a7       	std	Y+45, r25	; 0x2d

00001896 <.L92>:
    1896:	2d a5       	ldd	r18, Y+45	; 0x2d
    1898:	ce 01       	movw	r24, r28
    189a:	80 5c       	subi	r24, 0xC0	; 192
    189c:	9f 4f       	sbci	r25, 0xFF	; 255
    189e:	dc 01       	movw	r26, r24
    18a0:	2c 93       	st	X, r18

000018a2 <.LBB169>:
	__asm__ volatile (
    18a2:	ce 01       	movw	r24, r28
    18a4:	80 5c       	subi	r24, 0xC0	; 192
    18a6:	9f 4f       	sbci	r25, 0xFF	; 255
    18a8:	fc 01       	movw	r30, r24
    18aa:	80 81       	ld	r24, Z
    18ac:	28 2f       	mov	r18, r24

000018ae <.L1^B18>:
    18ae:	2a 95       	dec	r18
    18b0:	f1 f7       	brne	.-4      	; 0x18ae <.L1^B18>
    18b2:	ce 01       	movw	r24, r28
    18b4:	80 5c       	subi	r24, 0xC0	; 192
    18b6:	9f 4f       	sbci	r25, 0xFF	; 255
    18b8:	dc 01       	movw	r26, r24
    18ba:	2c 93       	st	X, r18

000018bc <.Loc.184>:
	...

000018be <.L105>:
    {
        _delay_us(1);
        duration++;
    18be:	80 91 08 02 	lds	r24, 0x0208	; 0x800208 <duration>
    18c2:	90 91 09 02 	lds	r25, 0x0209	; 0x800209 <duration+0x1>
    18c6:	a0 91 0a 02 	lds	r26, 0x020A	; 0x80020a <duration+0x2>
    18ca:	b0 91 0b 02 	lds	r27, 0x020B	; 0x80020b <duration+0x3>
    18ce:	01 96       	adiw	r24, 0x01	; 1
    18d0:	a1 1d       	adc	r26, r1
    18d2:	b1 1d       	adc	r27, r1
    18d4:	80 93 08 02 	sts	0x0208, r24	; 0x800208 <duration>
    18d8:	90 93 09 02 	sts	0x0209, r25	; 0x800209 <duration+0x1>
    18dc:	a0 93 0a 02 	sts	0x020A, r26	; 0x80020a <duration+0x2>
    18e0:	b0 93 0b 02 	sts	0x020B, r27	; 0x80020b <duration+0x3>

000018e4 <.L89>:
    while (PIND & (1 << USR_ECHO))
    18e4:	89 e2       	ldi	r24, 0x29	; 41
    18e6:	90 e0       	ldi	r25, 0x00	; 0
    18e8:	fc 01       	movw	r30, r24
    18ea:	80 81       	ld	r24, Z
    18ec:	88 23       	and	r24, r24
    18ee:	0c f4       	brge	.+2      	; 0x18f2 <.Loc.187>

000018f0 <L0^A>:
    18f0:	64 ce       	rjmp	.-824    	; 0x15ba <.L106>

000018f2 <.Loc.187>:
    }
    distance_R = duration * 0.034 / 2;
    18f2:	80 91 08 02 	lds	r24, 0x0208	; 0x800208 <duration>
    18f6:	90 91 09 02 	lds	r25, 0x0209	; 0x800209 <duration+0x1>
    18fa:	a0 91 0a 02 	lds	r26, 0x020A	; 0x80020a <duration+0x2>
    18fe:	b0 91 0b 02 	lds	r27, 0x020B	; 0x80020b <duration+0x3>
    1902:	63 96       	adiw	r28, 0x13	; 19
    1904:	8c af       	std	Y+60, r24	; 0x3c
    1906:	9d af       	std	Y+61, r25	; 0x3d
    1908:	ae af       	std	Y+62, r26	; 0x3e
    190a:	bf af       	std	Y+63, r27	; 0x3f
    190c:	63 97       	sbiw	r28, 0x13	; 19
    190e:	63 96       	adiw	r28, 0x13	; 19
    1910:	6c ad       	ldd	r22, Y+60	; 0x3c
    1912:	7d ad       	ldd	r23, Y+61	; 0x3d
    1914:	8e ad       	ldd	r24, Y+62	; 0x3e
    1916:	9f ad       	ldd	r25, Y+63	; 0x3f
    1918:	63 97       	sbiw	r28, 0x13	; 19
    191a:	0e 94 a3 14 	call	0x2946	; 0x2946 <__floatsisf>
    191e:	67 96       	adiw	r28, 0x17	; 23
    1920:	6c af       	std	Y+60, r22	; 0x3c
    1922:	7d af       	std	Y+61, r23	; 0x3d
    1924:	8e af       	std	Y+62, r24	; 0x3e
    1926:	9f af       	std	Y+63, r25	; 0x3f
    1928:	67 97       	sbiw	r28, 0x17	; 23
    192a:	26 e9       	ldi	r18, 0x96	; 150
    192c:	33 e4       	ldi	r19, 0x43	; 67
    192e:	4b e0       	ldi	r20, 0x0B	; 11
    1930:	5d e3       	ldi	r21, 0x3D	; 61
    1932:	67 96       	adiw	r28, 0x17	; 23
    1934:	6c ad       	ldd	r22, Y+60	; 0x3c
    1936:	7d ad       	ldd	r23, Y+61	; 0x3d
    1938:	8e ad       	ldd	r24, Y+62	; 0x3e
    193a:	9f ad       	ldd	r25, Y+63	; 0x3f
    193c:	67 97       	sbiw	r28, 0x17	; 23
    193e:	0e 94 58 15 	call	0x2ab0	; 0x2ab0 <__mulsf3>
    1942:	c9 54       	subi	r28, 0x49	; 73
    1944:	df 4f       	sbci	r29, 0xFF	; 255
    1946:	68 83       	st	Y, r22
    1948:	79 83       	std	Y+1, r23	; 0x01
    194a:	8a 83       	std	Y+2, r24	; 0x02
    194c:	9b 83       	std	Y+3, r25	; 0x03
    194e:	c7 5b       	subi	r28, 0xB7	; 183
    1950:	d0 40       	sbci	r29, 0x00	; 0
    1952:	c9 54       	subi	r28, 0x49	; 73
    1954:	df 4f       	sbci	r29, 0xFF	; 255
    1956:	88 81       	ld	r24, Y
    1958:	99 81       	ldd	r25, Y+1	; 0x01
    195a:	aa 81       	ldd	r26, Y+2	; 0x02
    195c:	bb 81       	ldd	r27, Y+3	; 0x03
    195e:	c7 5b       	subi	r28, 0xB7	; 183
    1960:	d0 40       	sbci	r29, 0x00	; 0
    1962:	6b 96       	adiw	r28, 0x1b	; 27
    1964:	8c af       	std	Y+60, r24	; 0x3c
    1966:	9d af       	std	Y+61, r25	; 0x3d
    1968:	ae af       	std	Y+62, r26	; 0x3e
    196a:	bf af       	std	Y+63, r27	; 0x3f
    196c:	6b 97       	sbiw	r28, 0x1b	; 27

0000196e <.Loc.188>:
    196e:	20 e0       	ldi	r18, 0x00	; 0
    1970:	30 e0       	ldi	r19, 0x00	; 0
    1972:	40 e0       	ldi	r20, 0x00	; 0
    1974:	50 e4       	ldi	r21, 0x40	; 64
    1976:	6b 96       	adiw	r28, 0x1b	; 27
    1978:	6c ad       	ldd	r22, Y+60	; 0x3c
    197a:	7d ad       	ldd	r23, Y+61	; 0x3d
    197c:	8e ad       	ldd	r24, Y+62	; 0x3e
    197e:	9f ad       	ldd	r25, Y+63	; 0x3f
    1980:	6b 97       	sbiw	r28, 0x1b	; 27
    1982:	0e 94 f9 13 	call	0x27f2	; 0x27f2 <__divsf3>
    1986:	c5 54       	subi	r28, 0x45	; 69
    1988:	df 4f       	sbci	r29, 0xFF	; 255
    198a:	68 83       	st	Y, r22
    198c:	79 83       	std	Y+1, r23	; 0x01
    198e:	8a 83       	std	Y+2, r24	; 0x02
    1990:	9b 83       	std	Y+3, r25	; 0x03
    1992:	cb 5b       	subi	r28, 0xBB	; 187
    1994:	d0 40       	sbci	r29, 0x00	; 0
    1996:	c5 54       	subi	r28, 0x45	; 69
    1998:	df 4f       	sbci	r29, 0xFF	; 255
    199a:	88 81       	ld	r24, Y
    199c:	99 81       	ldd	r25, Y+1	; 0x01
    199e:	aa 81       	ldd	r26, Y+2	; 0x02
    19a0:	bb 81       	ldd	r27, Y+3	; 0x03
    19a2:	cb 5b       	subi	r28, 0xBB	; 187
    19a4:	d0 40       	sbci	r29, 0x00	; 0
    19a6:	6f 96       	adiw	r28, 0x1f	; 31
    19a8:	8c af       	std	Y+60, r24	; 0x3c
    19aa:	9d af       	std	Y+61, r25	; 0x3d
    19ac:	ae af       	std	Y+62, r26	; 0x3e
    19ae:	bf af       	std	Y+63, r27	; 0x3f
    19b0:	6f 97       	sbiw	r28, 0x1f	; 31

000019b2 <.Loc.189>:
    19b2:	6f 96       	adiw	r28, 0x1f	; 31
    19b4:	6c ad       	ldd	r22, Y+60	; 0x3c
    19b6:	7d ad       	ldd	r23, Y+61	; 0x3d
    19b8:	8e ad       	ldd	r24, Y+62	; 0x3e
    19ba:	9f ad       	ldd	r25, Y+63	; 0x3f
    19bc:	6f 97       	sbiw	r28, 0x1f	; 31
    19be:	0e 94 6b 14 	call	0x28d6	; 0x28d6 <__fixsfsi>
    19c2:	a3 96       	adiw	r28, 0x23	; 35
    19c4:	6c af       	std	Y+60, r22	; 0x3c
    19c6:	7d af       	std	Y+61, r23	; 0x3d
    19c8:	8e af       	std	Y+62, r24	; 0x3e
    19ca:	9f af       	std	Y+63, r25	; 0x3f
    19cc:	a3 97       	sbiw	r28, 0x23	; 35
    19ce:	a3 96       	adiw	r28, 0x23	; 35
    19d0:	8c ad       	ldd	r24, Y+60	; 0x3c
    19d2:	9d ad       	ldd	r25, Y+61	; 0x3d
    19d4:	ae ad       	ldd	r26, Y+62	; 0x3e
    19d6:	bf ad       	ldd	r27, Y+63	; 0x3f
    19d8:	a3 97       	sbiw	r28, 0x23	; 35
    19da:	80 93 10 02 	sts	0x0210, r24	; 0x800210 <distance_R>
    19de:	90 93 11 02 	sts	0x0211, r25	; 0x800211 <distance_R+0x1>
    19e2:	a0 93 12 02 	sts	0x0212, r26	; 0x800212 <distance_R+0x2>
    19e6:	b0 93 13 02 	sts	0x0213, r27	; 0x800213 <distance_R+0x3>
    19ea:	9e 01       	movw	r18, r28
    19ec:	2f 5b       	subi	r18, 0xBF	; 191
    19ee:	3f 4f       	sbci	r19, 0xFF	; 255
    19f0:	80 e0       	ldi	r24, 0x00	; 0
    19f2:	90 e0       	ldi	r25, 0x00	; 0
    19f4:	a0 e2       	ldi	r26, 0x20	; 32
    19f6:	b1 e4       	ldi	r27, 0x41	; 65
    19f8:	f9 01       	movw	r30, r18
    19fa:	80 83       	st	Z, r24
    19fc:	91 83       	std	Z+1, r25	; 0x01
    19fe:	a2 83       	std	Z+2, r26	; 0x02
    1a00:	b3 83       	std	Z+3, r27	; 0x03

00001a02 <.LBB171>:
	__tmp = ((F_CPU) / 4e3) * __ms;
    1a02:	8e 01       	movw	r16, r28
    1a04:	0b 5b       	subi	r16, 0xBB	; 187
    1a06:	1f 4f       	sbci	r17, 0xFF	; 255
    1a08:	ce 01       	movw	r24, r28
    1a0a:	8f 5b       	subi	r24, 0xBF	; 191
    1a0c:	9f 4f       	sbci	r25, 0xFF	; 255
    1a0e:	20 e0       	ldi	r18, 0x00	; 0
    1a10:	30 e0       	ldi	r19, 0x00	; 0
    1a12:	4a e7       	ldi	r20, 0x7A	; 122
    1a14:	55 e4       	ldi	r21, 0x45	; 69
    1a16:	dc 01       	movw	r26, r24
    1a18:	6d 91       	ld	r22, X+
    1a1a:	7d 91       	ld	r23, X+
    1a1c:	8d 91       	ld	r24, X+
    1a1e:	9c 91       	ld	r25, X
    1a20:	0e 94 58 15 	call	0x2ab0	; 0x2ab0 <__mulsf3>
    1a24:	c1 54       	subi	r28, 0x41	; 65
    1a26:	df 4f       	sbci	r29, 0xFF	; 255
    1a28:	68 83       	st	Y, r22
    1a2a:	79 83       	std	Y+1, r23	; 0x01
    1a2c:	8a 83       	std	Y+2, r24	; 0x02
    1a2e:	9b 83       	std	Y+3, r25	; 0x03
    1a30:	cf 5b       	subi	r28, 0xBF	; 191
    1a32:	d0 40       	sbci	r29, 0x00	; 0
    1a34:	c1 54       	subi	r28, 0x41	; 65
    1a36:	df 4f       	sbci	r29, 0xFF	; 255
    1a38:	88 81       	ld	r24, Y
    1a3a:	99 81       	ldd	r25, Y+1	; 0x01
    1a3c:	aa 81       	ldd	r26, Y+2	; 0x02
    1a3e:	bb 81       	ldd	r27, Y+3	; 0x03
    1a40:	cf 5b       	subi	r28, 0xBF	; 191
    1a42:	d0 40       	sbci	r29, 0x00	; 0
    1a44:	f8 01       	movw	r30, r16
    1a46:	80 83       	st	Z, r24
    1a48:	91 83       	std	Z+1, r25	; 0x01
    1a4a:	a2 83       	std	Z+2, r26	; 0x02
    1a4c:	b3 83       	std	Z+3, r27	; 0x03

00001a4e <.Loc.191>:
	if (__tmp < 1.0)
    1a4e:	ce 01       	movw	r24, r28
    1a50:	8b 5b       	subi	r24, 0xBB	; 187
    1a52:	9f 4f       	sbci	r25, 0xFF	; 255
    1a54:	20 e0       	ldi	r18, 0x00	; 0
    1a56:	30 e0       	ldi	r19, 0x00	; 0
    1a58:	40 e8       	ldi	r20, 0x80	; 128
    1a5a:	5f e3       	ldi	r21, 0x3F	; 63
    1a5c:	dc 01       	movw	r26, r24
    1a5e:	6d 91       	ld	r22, X+
    1a60:	7d 91       	ld	r23, X+
    1a62:	8d 91       	ld	r24, X+
    1a64:	9c 91       	ld	r25, X
    1a66:	0e 94 f4 13 	call	0x27e8	; 0x27e8 <__cmpsf2>
    1a6a:	88 23       	and	r24, r24
    1a6c:	4c f4       	brge	.+18     	; 0x1a80 <.L137>

00001a6e <.Loc.192>:
		__ticks = 1;
    1a6e:	ce 01       	movw	r24, r28
    1a70:	87 5b       	subi	r24, 0xB7	; 183
    1a72:	9f 4f       	sbci	r25, 0xFF	; 255
    1a74:	21 e0       	ldi	r18, 0x01	; 1
    1a76:	30 e0       	ldi	r19, 0x00	; 0
    1a78:	fc 01       	movw	r30, r24
    1a7a:	31 83       	std	Z+1, r19	; 0x01
    1a7c:	20 83       	st	Z, r18
    1a7e:	a1 c0       	rjmp	.+322    	; 0x1bc2 <.L109>

00001a80 <.L137>:
	else if (__tmp > 65535)
    1a80:	ce 01       	movw	r24, r28
    1a82:	8b 5b       	subi	r24, 0xBB	; 187
    1a84:	9f 4f       	sbci	r25, 0xFF	; 255
    1a86:	20 e0       	ldi	r18, 0x00	; 0
    1a88:	3f ef       	ldi	r19, 0xFF	; 255
    1a8a:	4f e7       	ldi	r20, 0x7F	; 127
    1a8c:	57 e4       	ldi	r21, 0x47	; 71
    1a8e:	dc 01       	movw	r26, r24
    1a90:	6d 91       	ld	r22, X+
    1a92:	7d 91       	ld	r23, X+
    1a94:	8d 91       	ld	r24, X+
    1a96:	9c 91       	ld	r25, X
    1a98:	0e 94 53 15 	call	0x2aa6	; 0x2aa6 <__gesf2>
    1a9c:	88 23       	and	r24, r24
    1a9e:	09 f0       	breq	.+2      	; 0x1aa2 <L0^A>

00001aa0 <L0^A>:
    1aa0:	0c f4       	brge	.+2      	; 0x1aa4 <.Loc.194>

00001aa2 <L0^A>:
    1aa2:	71 c0       	rjmp	.+226    	; 0x1b86 <.L138>

00001aa4 <.Loc.194>:
		__ticks = (uint16_t) (__ms * 10.0);
    1aa4:	ce 01       	movw	r24, r28
    1aa6:	8f 5b       	subi	r24, 0xBF	; 191
    1aa8:	9f 4f       	sbci	r25, 0xFF	; 255
    1aaa:	20 e0       	ldi	r18, 0x00	; 0
    1aac:	30 e0       	ldi	r19, 0x00	; 0
    1aae:	40 e2       	ldi	r20, 0x20	; 32
    1ab0:	51 e4       	ldi	r21, 0x41	; 65
    1ab2:	fc 01       	movw	r30, r24
    1ab4:	60 81       	ld	r22, Z
    1ab6:	71 81       	ldd	r23, Z+1	; 0x01
    1ab8:	82 81       	ldd	r24, Z+2	; 0x02
    1aba:	93 81       	ldd	r25, Z+3	; 0x03
    1abc:	0e 94 58 15 	call	0x2ab0	; 0x2ab0 <__mulsf3>
    1ac0:	cd 53       	subi	r28, 0x3D	; 61
    1ac2:	df 4f       	sbci	r29, 0xFF	; 255
    1ac4:	68 83       	st	Y, r22
    1ac6:	79 83       	std	Y+1, r23	; 0x01
    1ac8:	8a 83       	std	Y+2, r24	; 0x02
    1aca:	9b 83       	std	Y+3, r25	; 0x03
    1acc:	c3 5c       	subi	r28, 0xC3	; 195
    1ace:	d0 40       	sbci	r29, 0x00	; 0
    1ad0:	cd 53       	subi	r28, 0x3D	; 61
    1ad2:	df 4f       	sbci	r29, 0xFF	; 255
    1ad4:	88 81       	ld	r24, Y
    1ad6:	99 81       	ldd	r25, Y+1	; 0x01
    1ad8:	aa 81       	ldd	r26, Y+2	; 0x02
    1ada:	bb 81       	ldd	r27, Y+3	; 0x03
    1adc:	c3 5c       	subi	r28, 0xC3	; 195
    1ade:	d0 40       	sbci	r29, 0x00	; 0
    1ae0:	af 96       	adiw	r28, 0x2f	; 47
    1ae2:	8c af       	std	Y+60, r24	; 0x3c
    1ae4:	9d af       	std	Y+61, r25	; 0x3d
    1ae6:	ae af       	std	Y+62, r26	; 0x3e
    1ae8:	bf af       	std	Y+63, r27	; 0x3f
    1aea:	af 97       	sbiw	r28, 0x2f	; 47

00001aec <.Loc.195>:
    1aec:	8e 01       	movw	r16, r28
    1aee:	07 5b       	subi	r16, 0xB7	; 183
    1af0:	1f 4f       	sbci	r17, 0xFF	; 255
    1af2:	af 96       	adiw	r28, 0x2f	; 47
    1af4:	6c ad       	ldd	r22, Y+60	; 0x3c
    1af6:	7d ad       	ldd	r23, Y+61	; 0x3d
    1af8:	8e ad       	ldd	r24, Y+62	; 0x3e
    1afa:	9f ad       	ldd	r25, Y+63	; 0x3f
    1afc:	af 97       	sbiw	r28, 0x2f	; 47
    1afe:	0e 94 72 14 	call	0x28e4	; 0x28e4 <__fixunssfsi>
    1b02:	c9 53       	subi	r28, 0x39	; 57
    1b04:	df 4f       	sbci	r29, 0xFF	; 255
    1b06:	68 83       	st	Y, r22
    1b08:	79 83       	std	Y+1, r23	; 0x01
    1b0a:	8a 83       	std	Y+2, r24	; 0x02
    1b0c:	9b 83       	std	Y+3, r25	; 0x03
    1b0e:	c7 5c       	subi	r28, 0xC7	; 199
    1b10:	d0 40       	sbci	r29, 0x00	; 0
    1b12:	c9 53       	subi	r28, 0x39	; 57
    1b14:	df 4f       	sbci	r29, 0xFF	; 255
    1b16:	e8 81       	ld	r30, Y
    1b18:	f9 81       	ldd	r31, Y+1	; 0x01
    1b1a:	c7 5c       	subi	r28, 0xC7	; 199
    1b1c:	d0 40       	sbci	r29, 0x00	; 0
    1b1e:	d8 01       	movw	r26, r16
    1b20:	11 96       	adiw	r26, 0x01	; 1
    1b22:	fc 93       	st	X, r31
    1b24:	ee 93       	st	-X, r30

00001b26 <.Loc.196>:
		while(__ticks)
    1b26:	26 c0       	rjmp	.+76     	; 0x1b74 <.L112>

00001b28 <.L113>:
    1b28:	ce 01       	movw	r24, r28
    1b2a:	85 5b       	subi	r24, 0xB5	; 181
    1b2c:	9f 4f       	sbci	r25, 0xFF	; 255
    1b2e:	20 e9       	ldi	r18, 0x90	; 144
    1b30:	31 e0       	ldi	r19, 0x01	; 1
    1b32:	dc 01       	movw	r26, r24
    1b34:	2d 93       	st	X+, r18
    1b36:	3c 93       	st	X, r19

00001b38 <.LBB173>:
	__asm__ volatile (
    1b38:	ce 01       	movw	r24, r28
    1b3a:	85 5b       	subi	r24, 0xB5	; 181
    1b3c:	9f 4f       	sbci	r25, 0xFF	; 255
    1b3e:	fc 01       	movw	r30, r24
    1b40:	80 81       	ld	r24, Z
    1b42:	91 81       	ldd	r25, Z+1	; 0x01

00001b44 <.L1^B19>:
    1b44:	01 97       	sbiw	r24, 0x01	; 1
    1b46:	f1 f7       	brne	.-4      	; 0x1b44 <.L1^B19>
    1b48:	9e 01       	movw	r18, r28
    1b4a:	25 5b       	subi	r18, 0xB5	; 181
    1b4c:	3f 4f       	sbci	r19, 0xFF	; 255
    1b4e:	d9 01       	movw	r26, r18
    1b50:	8d 93       	st	X+, r24
    1b52:	9c 93       	st	X, r25

00001b54 <.Loc.198>:
	...

00001b56 <.LBE173>:
			__ticks --;
    1b56:	ce 01       	movw	r24, r28
    1b58:	87 5b       	subi	r24, 0xB7	; 183
    1b5a:	9f 4f       	sbci	r25, 0xFF	; 255
    1b5c:	9e 01       	movw	r18, r28
    1b5e:	27 5b       	subi	r18, 0xB7	; 183
    1b60:	3f 4f       	sbci	r19, 0xFF	; 255
    1b62:	f9 01       	movw	r30, r18
    1b64:	20 81       	ld	r18, Z
    1b66:	31 81       	ldd	r19, Z+1	; 0x01
    1b68:	21 50       	subi	r18, 0x01	; 1
    1b6a:	31 09       	sbc	r19, r1
    1b6c:	dc 01       	movw	r26, r24
    1b6e:	11 96       	adiw	r26, 0x01	; 1
    1b70:	3c 93       	st	X, r19
    1b72:	2e 93       	st	-X, r18

00001b74 <.L112>:
		while(__ticks)
    1b74:	ce 01       	movw	r24, r28
    1b76:	87 5b       	subi	r24, 0xB7	; 183
    1b78:	9f 4f       	sbci	r25, 0xFF	; 255
    1b7a:	fc 01       	movw	r30, r24
    1b7c:	80 81       	ld	r24, Z
    1b7e:	91 81       	ldd	r25, Z+1	; 0x01
    1b80:	00 97       	sbiw	r24, 0x00	; 0
    1b82:	91 f6       	brne	.-92     	; 0x1b28 <.L113>

00001b84 <.Loc.201>:
		return;
    1b84:	3a c0       	rjmp	.+116    	; 0x1bfa <.L114>

00001b86 <.L138>:
		__ticks = (uint16_t)__tmp;
    1b86:	8e 01       	movw	r16, r28
    1b88:	07 5b       	subi	r16, 0xB7	; 183
    1b8a:	1f 4f       	sbci	r17, 0xFF	; 255
    1b8c:	ce 01       	movw	r24, r28
    1b8e:	8b 5b       	subi	r24, 0xBB	; 187
    1b90:	9f 4f       	sbci	r25, 0xFF	; 255
    1b92:	dc 01       	movw	r26, r24
    1b94:	6d 91       	ld	r22, X+
    1b96:	7d 91       	ld	r23, X+
    1b98:	8d 91       	ld	r24, X+
    1b9a:	9c 91       	ld	r25, X
    1b9c:	0e 94 72 14 	call	0x28e4	; 0x28e4 <__fixunssfsi>
    1ba0:	c5 53       	subi	r28, 0x35	; 53
    1ba2:	df 4f       	sbci	r29, 0xFF	; 255
    1ba4:	68 83       	st	Y, r22
    1ba6:	79 83       	std	Y+1, r23	; 0x01
    1ba8:	8a 83       	std	Y+2, r24	; 0x02
    1baa:	9b 83       	std	Y+3, r25	; 0x03
    1bac:	cb 5c       	subi	r28, 0xCB	; 203
    1bae:	d0 40       	sbci	r29, 0x00	; 0
    1bb0:	c5 53       	subi	r28, 0x35	; 53
    1bb2:	df 4f       	sbci	r29, 0xFF	; 255
    1bb4:	88 81       	ld	r24, Y
    1bb6:	99 81       	ldd	r25, Y+1	; 0x01
    1bb8:	cb 5c       	subi	r28, 0xCB	; 203
    1bba:	d0 40       	sbci	r29, 0x00	; 0
    1bbc:	f8 01       	movw	r30, r16
    1bbe:	91 83       	std	Z+1, r25	; 0x01
    1bc0:	80 83       	st	Z, r24

00001bc2 <.L109>:
    1bc2:	ce 01       	movw	r24, r28
    1bc4:	83 5b       	subi	r24, 0xB3	; 179
    1bc6:	9f 4f       	sbci	r25, 0xFF	; 255
    1bc8:	9e 01       	movw	r18, r28
    1bca:	27 5b       	subi	r18, 0xB7	; 183
    1bcc:	3f 4f       	sbci	r19, 0xFF	; 255
    1bce:	d9 01       	movw	r26, r18
    1bd0:	2d 91       	ld	r18, X+
    1bd2:	3c 91       	ld	r19, X
    1bd4:	fc 01       	movw	r30, r24
    1bd6:	31 83       	std	Z+1, r19	; 0x01
    1bd8:	20 83       	st	Z, r18

00001bda <.LBB175>:
    1bda:	ce 01       	movw	r24, r28
    1bdc:	83 5b       	subi	r24, 0xB3	; 179
    1bde:	9f 4f       	sbci	r25, 0xFF	; 255
    1be0:	dc 01       	movw	r26, r24
    1be2:	8d 91       	ld	r24, X+
    1be4:	9c 91       	ld	r25, X
    1be6:	11 97       	sbiw	r26, 0x01	; 1

00001be8 <.L1^B20>:
    1be8:	01 97       	sbiw	r24, 0x01	; 1
    1bea:	f1 f7       	brne	.-4      	; 0x1be8 <.L1^B20>
    1bec:	9e 01       	movw	r18, r28
    1bee:	23 5b       	subi	r18, 0xB3	; 179
    1bf0:	3f 4f       	sbci	r19, 0xFF	; 255
    1bf2:	f9 01       	movw	r30, r18
    1bf4:	91 83       	std	Z+1, r25	; 0x01
    1bf6:	80 83       	st	Z, r24

00001bf8 <.Loc.204>:
	...

00001bfa <.L114>:
    _delay_ms(10);
}
    1bfa:	00 00       	nop
    1bfc:	c2 53       	subi	r28, 0x32	; 50
    1bfe:	df 4f       	sbci	r29, 0xFF	; 255
    1c00:	0f b6       	in	r0, 0x3f	; 63
    1c02:	f8 94       	cli
    1c04:	de bf       	out	0x3e, r29	; 62
    1c06:	0f be       	out	0x3f, r0	; 63
    1c08:	cd bf       	out	0x3d, r28	; 61
    1c0a:	df 91       	pop	r29
    1c0c:	cf 91       	pop	r28
    1c0e:	1f 91       	pop	r17
    1c10:	0f 91       	pop	r16
    1c12:	08 95       	ret

00001c14 <usl_loop>:

void usl_loop()
{
    1c14:	0f 93       	push	r16
    1c16:	1f 93       	push	r17
    1c18:	cf 93       	push	r28
    1c1a:	df 93       	push	r29
    1c1c:	cd b7       	in	r28, 0x3d	; 61
    1c1e:	de b7       	in	r29, 0x3e	; 62
    1c20:	ce 5c       	subi	r28, 0xCE	; 206
    1c22:	d1 09       	sbc	r29, r1
    1c24:	0f b6       	in	r0, 0x3f	; 63
    1c26:	f8 94       	cli
    1c28:	de bf       	out	0x3e, r29	; 62
    1c2a:	0f be       	out	0x3f, r0	; 63
    1c2c:	cd bf       	out	0x3d, r28	; 61

00001c2e <.Loc.207>:
    PORTD |= (1 << USL_TRIGGER);
    1c2e:	8b e2       	ldi	r24, 0x2B	; 43
    1c30:	90 e0       	ldi	r25, 0x00	; 0
    1c32:	dc 01       	movw	r26, r24
    1c34:	2c 91       	ld	r18, X
    1c36:	8b e2       	ldi	r24, 0x2B	; 43
    1c38:	90 e0       	ldi	r25, 0x00	; 0

00001c3a <.Loc.208>:
    1c3a:	20 61       	ori	r18, 0x10	; 16
    1c3c:	fc 01       	movw	r30, r24
    1c3e:	20 83       	st	Z, r18
    1c40:	80 e0       	ldi	r24, 0x00	; 0
    1c42:	90 e0       	ldi	r25, 0x00	; 0
    1c44:	a0 e2       	ldi	r26, 0x20	; 32
    1c46:	b1 e4       	ldi	r27, 0x41	; 65
    1c48:	89 83       	std	Y+1, r24	; 0x01
    1c4a:	9a 83       	std	Y+2, r25	; 0x02
    1c4c:	ab 83       	std	Y+3, r26	; 0x03
    1c4e:	bc 83       	std	Y+4, r27	; 0x04

00001c50 <.LBB177>:
	__tmp = ((F_CPU) / 3e6) * __us;
    1c50:	2b ea       	ldi	r18, 0xAB	; 171
    1c52:	3a ea       	ldi	r19, 0xAA	; 170
    1c54:	4a ea       	ldi	r20, 0xAA	; 170
    1c56:	50 e4       	ldi	r21, 0x40	; 64
    1c58:	69 81       	ldd	r22, Y+1	; 0x01
    1c5a:	7a 81       	ldd	r23, Y+2	; 0x02
    1c5c:	8b 81       	ldd	r24, Y+3	; 0x03
    1c5e:	9c 81       	ldd	r25, Y+4	; 0x04
    1c60:	0e 94 58 15 	call	0x2ab0	; 0x2ab0 <__mulsf3>
    1c64:	e3 96       	adiw	r28, 0x33	; 51
    1c66:	6c af       	std	Y+60, r22	; 0x3c
    1c68:	7d af       	std	Y+61, r23	; 0x3d
    1c6a:	8e af       	std	Y+62, r24	; 0x3e
    1c6c:	9f af       	std	Y+63, r25	; 0x3f
    1c6e:	e3 97       	sbiw	r28, 0x33	; 51
    1c70:	e3 96       	adiw	r28, 0x33	; 51
    1c72:	8c ad       	ldd	r24, Y+60	; 0x3c
    1c74:	9d ad       	ldd	r25, Y+61	; 0x3d
    1c76:	ae ad       	ldd	r26, Y+62	; 0x3e
    1c78:	bf ad       	ldd	r27, Y+63	; 0x3f
    1c7a:	e3 97       	sbiw	r28, 0x33	; 51
    1c7c:	8d 83       	std	Y+5, r24	; 0x05
    1c7e:	9e 83       	std	Y+6, r25	; 0x06
    1c80:	af 83       	std	Y+7, r26	; 0x07
    1c82:	b8 87       	std	Y+8, r27	; 0x08

00001c84 <.Loc.210>:
	__tmp2 = ((F_CPU) / 4e6) * __us;
    1c84:	20 e0       	ldi	r18, 0x00	; 0
    1c86:	30 e0       	ldi	r19, 0x00	; 0
    1c88:	40 e8       	ldi	r20, 0x80	; 128
    1c8a:	50 e4       	ldi	r21, 0x40	; 64
    1c8c:	69 81       	ldd	r22, Y+1	; 0x01
    1c8e:	7a 81       	ldd	r23, Y+2	; 0x02
    1c90:	8b 81       	ldd	r24, Y+3	; 0x03
    1c92:	9c 81       	ldd	r25, Y+4	; 0x04
    1c94:	0e 94 58 15 	call	0x2ab0	; 0x2ab0 <__mulsf3>
    1c98:	e7 96       	adiw	r28, 0x37	; 55
    1c9a:	6c af       	std	Y+60, r22	; 0x3c
    1c9c:	7d af       	std	Y+61, r23	; 0x3d
    1c9e:	8e af       	std	Y+62, r24	; 0x3e
    1ca0:	9f af       	std	Y+63, r25	; 0x3f
    1ca2:	e7 97       	sbiw	r28, 0x37	; 55
    1ca4:	e7 96       	adiw	r28, 0x37	; 55
    1ca6:	8c ad       	ldd	r24, Y+60	; 0x3c
    1ca8:	9d ad       	ldd	r25, Y+61	; 0x3d
    1caa:	ae ad       	ldd	r26, Y+62	; 0x3e
    1cac:	bf ad       	ldd	r27, Y+63	; 0x3f
    1cae:	e7 97       	sbiw	r28, 0x37	; 55
    1cb0:	89 87       	std	Y+9, r24	; 0x09
    1cb2:	9a 87       	std	Y+10, r25	; 0x0a
    1cb4:	ab 87       	std	Y+11, r26	; 0x0b
    1cb6:	bc 87       	std	Y+12, r27	; 0x0c

00001cb8 <.Loc.211>:
	if (__tmp < 1.0)
    1cb8:	20 e0       	ldi	r18, 0x00	; 0
    1cba:	30 e0       	ldi	r19, 0x00	; 0
    1cbc:	40 e8       	ldi	r20, 0x80	; 128
    1cbe:	5f e3       	ldi	r21, 0x3F	; 63
    1cc0:	6d 81       	ldd	r22, Y+5	; 0x05
    1cc2:	7e 81       	ldd	r23, Y+6	; 0x06
    1cc4:	8f 81       	ldd	r24, Y+7	; 0x07
    1cc6:	98 85       	ldd	r25, Y+8	; 0x08
    1cc8:	0e 94 f4 13 	call	0x27e8	; 0x27e8 <__cmpsf2>
    1ccc:	88 23       	and	r24, r24
    1cce:	1c f4       	brge	.+6      	; 0x1cd6 <.L195>

00001cd0 <.Loc.212>:
		__ticks = 1;
    1cd0:	81 e0       	ldi	r24, 0x01	; 1
    1cd2:	8d 87       	std	Y+13, r24	; 0x0d
    1cd4:	13 c1       	rjmp	.+550    	; 0x1efc <.L142>

00001cd6 <.L195>:
	else if (__tmp2 > 65535)
    1cd6:	20 e0       	ldi	r18, 0x00	; 0
    1cd8:	3f ef       	ldi	r19, 0xFF	; 255
    1cda:	4f e7       	ldi	r20, 0x7F	; 127
    1cdc:	57 e4       	ldi	r21, 0x47	; 71
    1cde:	69 85       	ldd	r22, Y+9	; 0x09
    1ce0:	7a 85       	ldd	r23, Y+10	; 0x0a
    1ce2:	8b 85       	ldd	r24, Y+11	; 0x0b
    1ce4:	9c 85       	ldd	r25, Y+12	; 0x0c
    1ce6:	0e 94 53 15 	call	0x2aa6	; 0x2aa6 <__gesf2>
    1cea:	88 23       	and	r24, r24
    1cec:	09 f0       	breq	.+2      	; 0x1cf0 <L0^A>

00001cee <L0^A>:
    1cee:	0c f4       	brge	.+2      	; 0x1cf2 <.Loc.214>

00001cf0 <L0^A>:
    1cf0:	c2 c0       	rjmp	.+388    	; 0x1e76 <.L196>

00001cf2 <.Loc.214>:
		_delay_ms(__us / 1000.0);
    1cf2:	20 e0       	ldi	r18, 0x00	; 0
    1cf4:	30 e0       	ldi	r19, 0x00	; 0
    1cf6:	4a e7       	ldi	r20, 0x7A	; 122
    1cf8:	54 e4       	ldi	r21, 0x44	; 68
    1cfa:	69 81       	ldd	r22, Y+1	; 0x01
    1cfc:	7a 81       	ldd	r23, Y+2	; 0x02
    1cfe:	8b 81       	ldd	r24, Y+3	; 0x03
    1d00:	9c 81       	ldd	r25, Y+4	; 0x04
    1d02:	0e 94 f9 13 	call	0x27f2	; 0x27f2 <__divsf3>
    1d06:	eb 96       	adiw	r28, 0x3b	; 59
    1d08:	6c af       	std	Y+60, r22	; 0x3c
    1d0a:	7d af       	std	Y+61, r23	; 0x3d
    1d0c:	8e af       	std	Y+62, r24	; 0x3e
    1d0e:	9f af       	std	Y+63, r25	; 0x3f
    1d10:	eb 97       	sbiw	r28, 0x3b	; 59
    1d12:	eb 96       	adiw	r28, 0x3b	; 59
    1d14:	8c ad       	ldd	r24, Y+60	; 0x3c
    1d16:	9d ad       	ldd	r25, Y+61	; 0x3d
    1d18:	ae ad       	ldd	r26, Y+62	; 0x3e
    1d1a:	bf ad       	ldd	r27, Y+63	; 0x3f
    1d1c:	eb 97       	sbiw	r28, 0x3b	; 59
    1d1e:	8e 87       	std	Y+14, r24	; 0x0e
    1d20:	9f 87       	std	Y+15, r25	; 0x0f
    1d22:	a8 8b       	std	Y+16, r26	; 0x10
    1d24:	b9 8b       	std	Y+17, r27	; 0x11

00001d26 <.LBB179>:
	__tmp = ((F_CPU) / 4e3) * __ms;
    1d26:	20 e0       	ldi	r18, 0x00	; 0
    1d28:	30 e0       	ldi	r19, 0x00	; 0
    1d2a:	4a e7       	ldi	r20, 0x7A	; 122
    1d2c:	55 e4       	ldi	r21, 0x45	; 69
    1d2e:	6e 85       	ldd	r22, Y+14	; 0x0e
    1d30:	7f 85       	ldd	r23, Y+15	; 0x0f
    1d32:	88 89       	ldd	r24, Y+16	; 0x10
    1d34:	99 89       	ldd	r25, Y+17	; 0x11
    1d36:	0e 94 58 15 	call	0x2ab0	; 0x2ab0 <__mulsf3>
    1d3a:	ef 96       	adiw	r28, 0x3f	; 63
    1d3c:	6c af       	std	Y+60, r22	; 0x3c
    1d3e:	7d af       	std	Y+61, r23	; 0x3d
    1d40:	8e af       	std	Y+62, r24	; 0x3e
    1d42:	9f af       	std	Y+63, r25	; 0x3f
    1d44:	ef 97       	sbiw	r28, 0x3f	; 63
    1d46:	ef 96       	adiw	r28, 0x3f	; 63
    1d48:	8c ad       	ldd	r24, Y+60	; 0x3c
    1d4a:	9d ad       	ldd	r25, Y+61	; 0x3d
    1d4c:	ae ad       	ldd	r26, Y+62	; 0x3e
    1d4e:	bf ad       	ldd	r27, Y+63	; 0x3f
    1d50:	ef 97       	sbiw	r28, 0x3f	; 63
    1d52:	8a 8b       	std	Y+18, r24	; 0x12
    1d54:	9b 8b       	std	Y+19, r25	; 0x13
    1d56:	ac 8b       	std	Y+20, r26	; 0x14
    1d58:	bd 8b       	std	Y+21, r27	; 0x15

00001d5a <.Loc.216>:
	if (__tmp < 1.0)
    1d5a:	20 e0       	ldi	r18, 0x00	; 0
    1d5c:	30 e0       	ldi	r19, 0x00	; 0
    1d5e:	40 e8       	ldi	r20, 0x80	; 128
    1d60:	5f e3       	ldi	r21, 0x3F	; 63
    1d62:	6a 89       	ldd	r22, Y+18	; 0x12
    1d64:	7b 89       	ldd	r23, Y+19	; 0x13
    1d66:	8c 89       	ldd	r24, Y+20	; 0x14
    1d68:	9d 89       	ldd	r25, Y+21	; 0x15
    1d6a:	0e 94 f4 13 	call	0x27e8	; 0x27e8 <__cmpsf2>
    1d6e:	88 23       	and	r24, r24
    1d70:	2c f4       	brge	.+10     	; 0x1d7c <.L197>

00001d72 <.Loc.217>:
		__ticks = 1;
    1d72:	81 e0       	ldi	r24, 0x01	; 1
    1d74:	90 e0       	ldi	r25, 0x00	; 0
    1d76:	9f 8b       	std	Y+23, r25	; 0x17
    1d78:	8e 8b       	std	Y+22, r24	; 0x16
    1d7a:	72 c0       	rjmp	.+228    	; 0x1e60 <.L147>

00001d7c <.L197>:
	else if (__tmp > 65535)
    1d7c:	20 e0       	ldi	r18, 0x00	; 0
    1d7e:	3f ef       	ldi	r19, 0xFF	; 255
    1d80:	4f e7       	ldi	r20, 0x7F	; 127
    1d82:	57 e4       	ldi	r21, 0x47	; 71
    1d84:	6a 89       	ldd	r22, Y+18	; 0x12
    1d86:	7b 89       	ldd	r23, Y+19	; 0x13
    1d88:	8c 89       	ldd	r24, Y+20	; 0x14
    1d8a:	9d 89       	ldd	r25, Y+21	; 0x15
    1d8c:	0e 94 53 15 	call	0x2aa6	; 0x2aa6 <__gesf2>
    1d90:	88 23       	and	r24, r24
    1d92:	09 f0       	breq	.+2      	; 0x1d96 <L0^A>

00001d94 <L0^A>:
    1d94:	0c f4       	brge	.+2      	; 0x1d98 <.Loc.219>

00001d96 <L0^A>:
    1d96:	4e c0       	rjmp	.+156    	; 0x1e34 <.L198>

00001d98 <.Loc.219>:
		__ticks = (uint16_t) (__ms * 10.0);
    1d98:	20 e0       	ldi	r18, 0x00	; 0
    1d9a:	30 e0       	ldi	r19, 0x00	; 0
    1d9c:	40 e2       	ldi	r20, 0x20	; 32
    1d9e:	51 e4       	ldi	r21, 0x41	; 65
    1da0:	6e 85       	ldd	r22, Y+14	; 0x0e
    1da2:	7f 85       	ldd	r23, Y+15	; 0x0f
    1da4:	88 89       	ldd	r24, Y+16	; 0x10
    1da6:	99 89       	ldd	r25, Y+17	; 0x11
    1da8:	0e 94 58 15 	call	0x2ab0	; 0x2ab0 <__mulsf3>
    1dac:	c1 58       	subi	r28, 0x81	; 129
    1dae:	df 4f       	sbci	r29, 0xFF	; 255
    1db0:	68 83       	st	Y, r22
    1db2:	79 83       	std	Y+1, r23	; 0x01
    1db4:	8a 83       	std	Y+2, r24	; 0x02
    1db6:	9b 83       	std	Y+3, r25	; 0x03
    1db8:	cf 57       	subi	r28, 0x7F	; 127
    1dba:	d0 40       	sbci	r29, 0x00	; 0
    1dbc:	c1 58       	subi	r28, 0x81	; 129
    1dbe:	df 4f       	sbci	r29, 0xFF	; 255
    1dc0:	88 81       	ld	r24, Y
    1dc2:	99 81       	ldd	r25, Y+1	; 0x01
    1dc4:	aa 81       	ldd	r26, Y+2	; 0x02
    1dc6:	bb 81       	ldd	r27, Y+3	; 0x03
    1dc8:	cf 57       	subi	r28, 0x7F	; 127
    1dca:	d0 40       	sbci	r29, 0x00	; 0
    1dcc:	a7 96       	adiw	r28, 0x27	; 39
    1dce:	8c af       	std	Y+60, r24	; 0x3c
    1dd0:	9d af       	std	Y+61, r25	; 0x3d
    1dd2:	ae af       	std	Y+62, r26	; 0x3e
    1dd4:	bf af       	std	Y+63, r27	; 0x3f
    1dd6:	a7 97       	sbiw	r28, 0x27	; 39

00001dd8 <.Loc.220>:
    1dd8:	a7 96       	adiw	r28, 0x27	; 39
    1dda:	6c ad       	ldd	r22, Y+60	; 0x3c
    1ddc:	7d ad       	ldd	r23, Y+61	; 0x3d
    1dde:	8e ad       	ldd	r24, Y+62	; 0x3e
    1de0:	9f ad       	ldd	r25, Y+63	; 0x3f
    1de2:	a7 97       	sbiw	r28, 0x27	; 39
    1de4:	0e 94 72 14 	call	0x28e4	; 0x28e4 <__fixunssfsi>
    1de8:	cd 57       	subi	r28, 0x7D	; 125
    1dea:	df 4f       	sbci	r29, 0xFF	; 255
    1dec:	68 83       	st	Y, r22
    1dee:	79 83       	std	Y+1, r23	; 0x01
    1df0:	8a 83       	std	Y+2, r24	; 0x02
    1df2:	9b 83       	std	Y+3, r25	; 0x03
    1df4:	c3 58       	subi	r28, 0x83	; 131
    1df6:	d0 40       	sbci	r29, 0x00	; 0
    1df8:	cd 57       	subi	r28, 0x7D	; 125
    1dfa:	df 4f       	sbci	r29, 0xFF	; 255
    1dfc:	a8 81       	ld	r26, Y
    1dfe:	b9 81       	ldd	r27, Y+1	; 0x01
    1e00:	c3 58       	subi	r28, 0x83	; 131
    1e02:	d0 40       	sbci	r29, 0x00	; 0
    1e04:	bf 8b       	std	Y+23, r27	; 0x17
    1e06:	ae 8b       	std	Y+22, r26	; 0x16

00001e08 <.Loc.221>:
		while(__ticks)
    1e08:	10 c0       	rjmp	.+32     	; 0x1e2a <.L150>

00001e0a <.L151>:
    1e0a:	80 e9       	ldi	r24, 0x90	; 144
    1e0c:	91 e0       	ldi	r25, 0x01	; 1
    1e0e:	99 8f       	std	Y+25, r25	; 0x19
    1e10:	88 8f       	std	Y+24, r24	; 0x18

00001e12 <.LBB181>:
    1e12:	88 8d       	ldd	r24, Y+24	; 0x18
    1e14:	99 8d       	ldd	r25, Y+25	; 0x19

00001e16 <.L1^B21>:
    1e16:	01 97       	sbiw	r24, 0x01	; 1
    1e18:	f1 f7       	brne	.-4      	; 0x1e16 <.L1^B21>
    1e1a:	99 8f       	std	Y+25, r25	; 0x19
    1e1c:	88 8f       	std	Y+24, r24	; 0x18

00001e1e <.Loc.223>:
	...

00001e20 <.LBE181>:
			__ticks --;
    1e20:	8e 89       	ldd	r24, Y+22	; 0x16
    1e22:	9f 89       	ldd	r25, Y+23	; 0x17
    1e24:	01 97       	sbiw	r24, 0x01	; 1
    1e26:	9f 8b       	std	Y+23, r25	; 0x17
    1e28:	8e 8b       	std	Y+22, r24	; 0x16

00001e2a <.L150>:
		while(__ticks)
    1e2a:	8e 89       	ldd	r24, Y+22	; 0x16
    1e2c:	9f 89       	ldd	r25, Y+23	; 0x17
    1e2e:	00 97       	sbiw	r24, 0x00	; 0
    1e30:	61 f7       	brne	.-40     	; 0x1e0a <.L151>

00001e32 <.Loc.226>:
		return;
    1e32:	64 c0       	rjmp	.+200    	; 0x1efc <.L142>

00001e34 <.L198>:
		__ticks = (uint16_t)__tmp;
    1e34:	6a 89       	ldd	r22, Y+18	; 0x12
    1e36:	7b 89       	ldd	r23, Y+19	; 0x13
    1e38:	8c 89       	ldd	r24, Y+20	; 0x14
    1e3a:	9d 89       	ldd	r25, Y+21	; 0x15
    1e3c:	0e 94 72 14 	call	0x28e4	; 0x28e4 <__fixunssfsi>
    1e40:	c9 57       	subi	r28, 0x79	; 121
    1e42:	df 4f       	sbci	r29, 0xFF	; 255
    1e44:	68 83       	st	Y, r22
    1e46:	79 83       	std	Y+1, r23	; 0x01
    1e48:	8a 83       	std	Y+2, r24	; 0x02
    1e4a:	9b 83       	std	Y+3, r25	; 0x03
    1e4c:	c7 58       	subi	r28, 0x87	; 135
    1e4e:	d0 40       	sbci	r29, 0x00	; 0
    1e50:	c9 57       	subi	r28, 0x79	; 121
    1e52:	df 4f       	sbci	r29, 0xFF	; 255
    1e54:	e8 81       	ld	r30, Y
    1e56:	f9 81       	ldd	r31, Y+1	; 0x01
    1e58:	c7 58       	subi	r28, 0x87	; 135
    1e5a:	d0 40       	sbci	r29, 0x00	; 0
    1e5c:	ff 8b       	std	Y+23, r31	; 0x17
    1e5e:	ee 8b       	std	Y+22, r30	; 0x16

00001e60 <.L147>:
    1e60:	8e 89       	ldd	r24, Y+22	; 0x16
    1e62:	9f 89       	ldd	r25, Y+23	; 0x17
    1e64:	9b 8f       	std	Y+27, r25	; 0x1b
    1e66:	8a 8f       	std	Y+26, r24	; 0x1a

00001e68 <.LBB183>:
    1e68:	8a 8d       	ldd	r24, Y+26	; 0x1a
    1e6a:	9b 8d       	ldd	r25, Y+27	; 0x1b

00001e6c <.L1^B22>:
    1e6c:	01 97       	sbiw	r24, 0x01	; 1
    1e6e:	f1 f7       	brne	.-4      	; 0x1e6c <.L1^B22>
    1e70:	9b 8f       	std	Y+27, r25	; 0x1b
    1e72:	8a 8f       	std	Y+26, r24	; 0x1a

00001e74 <.Loc.229>:
}
    1e74:	43 c0       	rjmp	.+134    	; 0x1efc <.L142>

00001e76 <.L196>:
	else if (__tmp > 255)
    1e76:	20 e0       	ldi	r18, 0x00	; 0
    1e78:	30 e0       	ldi	r19, 0x00	; 0
    1e7a:	4f e7       	ldi	r20, 0x7F	; 127
    1e7c:	53 e4       	ldi	r21, 0x43	; 67
    1e7e:	6d 81       	ldd	r22, Y+5	; 0x05
    1e80:	7e 81       	ldd	r23, Y+6	; 0x06
    1e82:	8f 81       	ldd	r24, Y+7	; 0x07
    1e84:	98 85       	ldd	r25, Y+8	; 0x08
    1e86:	0e 94 53 15 	call	0x2aa6	; 0x2aa6 <__gesf2>
    1e8a:	88 23       	and	r24, r24
    1e8c:	19 f1       	breq	.+70     	; 0x1ed4 <.L199>
    1e8e:	14 f1       	brlt	.+68     	; 0x1ed4 <.L199>

00001e90 <.LBB185>:
		uint16_t __ticks=(uint16_t)__tmp2;
    1e90:	69 85       	ldd	r22, Y+9	; 0x09
    1e92:	7a 85       	ldd	r23, Y+10	; 0x0a
    1e94:	8b 85       	ldd	r24, Y+11	; 0x0b
    1e96:	9c 85       	ldd	r25, Y+12	; 0x0c
    1e98:	0e 94 72 14 	call	0x28e4	; 0x28e4 <__fixunssfsi>
    1e9c:	c5 57       	subi	r28, 0x75	; 117
    1e9e:	df 4f       	sbci	r29, 0xFF	; 255
    1ea0:	68 83       	st	Y, r22
    1ea2:	79 83       	std	Y+1, r23	; 0x01
    1ea4:	8a 83       	std	Y+2, r24	; 0x02
    1ea6:	9b 83       	std	Y+3, r25	; 0x03
    1ea8:	cb 58       	subi	r28, 0x8B	; 139
    1eaa:	d0 40       	sbci	r29, 0x00	; 0
    1eac:	c5 57       	subi	r28, 0x75	; 117
    1eae:	df 4f       	sbci	r29, 0xFF	; 255
    1eb0:	88 81       	ld	r24, Y
    1eb2:	99 81       	ldd	r25, Y+1	; 0x01
    1eb4:	cb 58       	subi	r28, 0x8B	; 139
    1eb6:	d0 40       	sbci	r29, 0x00	; 0
    1eb8:	9d 8f       	std	Y+29, r25	; 0x1d
    1eba:	8c 8f       	std	Y+28, r24	; 0x1c
    1ebc:	8c 8d       	ldd	r24, Y+28	; 0x1c
    1ebe:	9d 8d       	ldd	r25, Y+29	; 0x1d
    1ec0:	9f 8f       	std	Y+31, r25	; 0x1f
    1ec2:	8e 8f       	std	Y+30, r24	; 0x1e

00001ec4 <.LBB186>:
	__asm__ volatile (
    1ec4:	8e 8d       	ldd	r24, Y+30	; 0x1e
    1ec6:	9f 8d       	ldd	r25, Y+31	; 0x1f

00001ec8 <.L1^B23>:
    1ec8:	01 97       	sbiw	r24, 0x01	; 1
    1eca:	f1 f7       	brne	.-4      	; 0x1ec8 <.L1^B23>
    1ecc:	9f 8f       	std	Y+31, r25	; 0x1f
    1ece:	8e 8f       	std	Y+30, r24	; 0x1e

00001ed0 <.Loc.233>:
	...

00001ed2 <.LBE186>:
		return;
    1ed2:	1b c0       	rjmp	.+54     	; 0x1f0a <.L155>

00001ed4 <.L199>:
		__ticks = (uint8_t)__tmp;
    1ed4:	6d 81       	ldd	r22, Y+5	; 0x05
    1ed6:	7e 81       	ldd	r23, Y+6	; 0x06
    1ed8:	8f 81       	ldd	r24, Y+7	; 0x07
    1eda:	98 85       	ldd	r25, Y+8	; 0x08
    1edc:	0e 94 72 14 	call	0x28e4	; 0x28e4 <__fixunssfsi>
    1ee0:	c1 57       	subi	r28, 0x71	; 113
    1ee2:	df 4f       	sbci	r29, 0xFF	; 255
    1ee4:	68 83       	st	Y, r22
    1ee6:	79 83       	std	Y+1, r23	; 0x01
    1ee8:	8a 83       	std	Y+2, r24	; 0x02
    1eea:	9b 83       	std	Y+3, r25	; 0x03
    1eec:	cf 58       	subi	r28, 0x8F	; 143
    1eee:	d0 40       	sbci	r29, 0x00	; 0
    1ef0:	c1 57       	subi	r28, 0x71	; 113
    1ef2:	df 4f       	sbci	r29, 0xFF	; 255
    1ef4:	98 81       	ld	r25, Y
    1ef6:	cf 58       	subi	r28, 0x8F	; 143
    1ef8:	d0 40       	sbci	r29, 0x00	; 0
    1efa:	9d 87       	std	Y+13, r25	; 0x0d

00001efc <.L142>:
    1efc:	8d 85       	ldd	r24, Y+13	; 0x0d
    1efe:	88 a3       	std	Y+32, r24	; 0x20

00001f00 <.LBB188>:
	__asm__ volatile (
    1f00:	88 a1       	ldd	r24, Y+32	; 0x20

00001f02 <.L1^B24>:
    1f02:	8a 95       	dec	r24
    1f04:	f1 f7       	brne	.-4      	; 0x1f02 <.L1^B24>
    1f06:	88 a3       	std	Y+32, r24	; 0x20

00001f08 <.Loc.237>:
	...

00001f0a <.L155>:
    _delay_us(10);
    PORTD &= ~(1 << USL_ECHO);
    1f0a:	8b e2       	ldi	r24, 0x2B	; 43
    1f0c:	90 e0       	ldi	r25, 0x00	; 0
    1f0e:	dc 01       	movw	r26, r24
    1f10:	2c 91       	ld	r18, X

00001f12 <.Loc.239>:
    1f12:	8b e2       	ldi	r24, 0x2B	; 43
    1f14:	90 e0       	ldi	r25, 0x00	; 0

00001f16 <.Loc.240>:
    1f16:	2f 7d       	andi	r18, 0xDF	; 223
    1f18:	fc 01       	movw	r30, r24
    1f1a:	20 83       	st	Z, r18

00001f1c <.Loc.241>:
	...

00001f1e <.L156>:
    // Wachten op de echo-puls
    while (!(PIND & (1 << USL_ECHO)));
    1f1e:	89 e2       	ldi	r24, 0x29	; 41
    1f20:	90 e0       	ldi	r25, 0x00	; 0
    1f22:	dc 01       	movw	r26, r24
    1f24:	8c 91       	ld	r24, X

00001f26 <.Loc.243>:
    1f26:	88 2f       	mov	r24, r24
    1f28:	90 e0       	ldi	r25, 0x00	; 0
    1f2a:	80 72       	andi	r24, 0x20	; 32
    1f2c:	99 27       	eor	r25, r25

00001f2e <.Loc.244>:
    1f2e:	00 97       	sbiw	r24, 0x00	; 0
    1f30:	b1 f3       	breq	.-20     	; 0x1f1e <.L156>

00001f32 <.Loc.245>:
    // Starttijd van de echo-puls vastleggen
    duration = 0;
    1f32:	10 92 08 02 	sts	0x0208, r1	; 0x800208 <duration>
    1f36:	10 92 09 02 	sts	0x0209, r1	; 0x800209 <duration+0x1>
    1f3a:	10 92 0a 02 	sts	0x020A, r1	; 0x80020a <duration+0x2>
    1f3e:	10 92 0b 02 	sts	0x020B, r1	; 0x80020b <duration+0x3>

00001f42 <.Loc.246>:
    while (PIND & (1 << USL_ECHO))
    1f42:	95 c1       	rjmp	.+810    	; 0x226e <.L157>

00001f44 <.L174>:
    1f44:	80 e0       	ldi	r24, 0x00	; 0
    1f46:	90 e0       	ldi	r25, 0x00	; 0
    1f48:	a0 e8       	ldi	r26, 0x80	; 128
    1f4a:	bf e3       	ldi	r27, 0x3F	; 63
    1f4c:	89 a3       	std	Y+33, r24	; 0x21
    1f4e:	9a a3       	std	Y+34, r25	; 0x22
    1f50:	ab a3       	std	Y+35, r26	; 0x23
    1f52:	bc a3       	std	Y+36, r27	; 0x24

00001f54 <.LBB190>:
	__tmp = ((F_CPU) / 3e6) * __us;
    1f54:	2b ea       	ldi	r18, 0xAB	; 171
    1f56:	3a ea       	ldi	r19, 0xAA	; 170
    1f58:	4a ea       	ldi	r20, 0xAA	; 170
    1f5a:	50 e4       	ldi	r21, 0x40	; 64
    1f5c:	69 a1       	ldd	r22, Y+33	; 0x21
    1f5e:	7a a1       	ldd	r23, Y+34	; 0x22
    1f60:	8b a1       	ldd	r24, Y+35	; 0x23
    1f62:	9c a1       	ldd	r25, Y+36	; 0x24
    1f64:	0e 94 58 15 	call	0x2ab0	; 0x2ab0 <__mulsf3>
    1f68:	cd 56       	subi	r28, 0x6D	; 109
    1f6a:	df 4f       	sbci	r29, 0xFF	; 255
    1f6c:	68 83       	st	Y, r22
    1f6e:	79 83       	std	Y+1, r23	; 0x01
    1f70:	8a 83       	std	Y+2, r24	; 0x02
    1f72:	9b 83       	std	Y+3, r25	; 0x03
    1f74:	c3 59       	subi	r28, 0x93	; 147
    1f76:	d0 40       	sbci	r29, 0x00	; 0
    1f78:	cd 56       	subi	r28, 0x6D	; 109
    1f7a:	df 4f       	sbci	r29, 0xFF	; 255
    1f7c:	88 81       	ld	r24, Y
    1f7e:	99 81       	ldd	r25, Y+1	; 0x01
    1f80:	aa 81       	ldd	r26, Y+2	; 0x02
    1f82:	bb 81       	ldd	r27, Y+3	; 0x03
    1f84:	c3 59       	subi	r28, 0x93	; 147
    1f86:	d0 40       	sbci	r29, 0x00	; 0
    1f88:	8d a3       	std	Y+37, r24	; 0x25
    1f8a:	9e a3       	std	Y+38, r25	; 0x26
    1f8c:	af a3       	std	Y+39, r26	; 0x27
    1f8e:	b8 a7       	std	Y+40, r27	; 0x28

00001f90 <.Loc.248>:
	__tmp2 = ((F_CPU) / 4e6) * __us;
    1f90:	20 e0       	ldi	r18, 0x00	; 0
    1f92:	30 e0       	ldi	r19, 0x00	; 0
    1f94:	40 e8       	ldi	r20, 0x80	; 128
    1f96:	50 e4       	ldi	r21, 0x40	; 64
    1f98:	69 a1       	ldd	r22, Y+33	; 0x21
    1f9a:	7a a1       	ldd	r23, Y+34	; 0x22
    1f9c:	8b a1       	ldd	r24, Y+35	; 0x23
    1f9e:	9c a1       	ldd	r25, Y+36	; 0x24
    1fa0:	0e 94 58 15 	call	0x2ab0	; 0x2ab0 <__mulsf3>
    1fa4:	c9 56       	subi	r28, 0x69	; 105
    1fa6:	df 4f       	sbci	r29, 0xFF	; 255
    1fa8:	68 83       	st	Y, r22
    1faa:	79 83       	std	Y+1, r23	; 0x01
    1fac:	8a 83       	std	Y+2, r24	; 0x02
    1fae:	9b 83       	std	Y+3, r25	; 0x03
    1fb0:	c7 59       	subi	r28, 0x97	; 151
    1fb2:	d0 40       	sbci	r29, 0x00	; 0
    1fb4:	c9 56       	subi	r28, 0x69	; 105
    1fb6:	df 4f       	sbci	r29, 0xFF	; 255
    1fb8:	88 81       	ld	r24, Y
    1fba:	99 81       	ldd	r25, Y+1	; 0x01
    1fbc:	aa 81       	ldd	r26, Y+2	; 0x02
    1fbe:	bb 81       	ldd	r27, Y+3	; 0x03
    1fc0:	c7 59       	subi	r28, 0x97	; 151
    1fc2:	d0 40       	sbci	r29, 0x00	; 0
    1fc4:	89 a7       	std	Y+41, r24	; 0x29
    1fc6:	9a a7       	std	Y+42, r25	; 0x2a
    1fc8:	ab a7       	std	Y+43, r26	; 0x2b
    1fca:	bc a7       	std	Y+44, r27	; 0x2c

00001fcc <.Loc.249>:
	if (__tmp < 1.0)
    1fcc:	20 e0       	ldi	r18, 0x00	; 0
    1fce:	30 e0       	ldi	r19, 0x00	; 0
    1fd0:	40 e8       	ldi	r20, 0x80	; 128
    1fd2:	5f e3       	ldi	r21, 0x3F	; 63
    1fd4:	6d a1       	ldd	r22, Y+37	; 0x25
    1fd6:	7e a1       	ldd	r23, Y+38	; 0x26
    1fd8:	8f a1       	ldd	r24, Y+39	; 0x27
    1fda:	98 a5       	ldd	r25, Y+40	; 0x28
    1fdc:	0e 94 f4 13 	call	0x27e8	; 0x27e8 <__cmpsf2>
    1fe0:	88 23       	and	r24, r24
    1fe2:	1c f4       	brge	.+6      	; 0x1fea <.L200>

00001fe4 <.Loc.250>:
		__ticks = 1;
    1fe4:	81 e0       	ldi	r24, 0x01	; 1
    1fe6:	8d a7       	std	Y+45, r24	; 0x2d
    1fe8:	1b c1       	rjmp	.+566    	; 0x2220 <.L160>

00001fea <.L200>:
	else if (__tmp2 > 65535)
    1fea:	20 e0       	ldi	r18, 0x00	; 0
    1fec:	3f ef       	ldi	r19, 0xFF	; 255
    1fee:	4f e7       	ldi	r20, 0x7F	; 127
    1ff0:	57 e4       	ldi	r21, 0x47	; 71
    1ff2:	69 a5       	ldd	r22, Y+41	; 0x29
    1ff4:	7a a5       	ldd	r23, Y+42	; 0x2a
    1ff6:	8b a5       	ldd	r24, Y+43	; 0x2b
    1ff8:	9c a5       	ldd	r25, Y+44	; 0x2c
    1ffa:	0e 94 53 15 	call	0x2aa6	; 0x2aa6 <__gesf2>
    1ffe:	88 23       	and	r24, r24
    2000:	09 f0       	breq	.+2      	; 0x2004 <L0^A>

00002002 <L0^A>:
    2002:	0c f4       	brge	.+2      	; 0x2006 <.Loc.252>

00002004 <L0^A>:
    2004:	ca c0       	rjmp	.+404    	; 0x219a <.L201>

00002006 <.Loc.252>:
		_delay_ms(__us / 1000.0);
    2006:	20 e0       	ldi	r18, 0x00	; 0
    2008:	30 e0       	ldi	r19, 0x00	; 0
    200a:	4a e7       	ldi	r20, 0x7A	; 122
    200c:	54 e4       	ldi	r21, 0x44	; 68
    200e:	69 a1       	ldd	r22, Y+33	; 0x21
    2010:	7a a1       	ldd	r23, Y+34	; 0x22
    2012:	8b a1       	ldd	r24, Y+35	; 0x23
    2014:	9c a1       	ldd	r25, Y+36	; 0x24
    2016:	0e 94 f9 13 	call	0x27f2	; 0x27f2 <__divsf3>
    201a:	c5 56       	subi	r28, 0x65	; 101
    201c:	df 4f       	sbci	r29, 0xFF	; 255
    201e:	68 83       	st	Y, r22
    2020:	79 83       	std	Y+1, r23	; 0x01
    2022:	8a 83       	std	Y+2, r24	; 0x02
    2024:	9b 83       	std	Y+3, r25	; 0x03
    2026:	cb 59       	subi	r28, 0x9B	; 155
    2028:	d0 40       	sbci	r29, 0x00	; 0
    202a:	c5 56       	subi	r28, 0x65	; 101
    202c:	df 4f       	sbci	r29, 0xFF	; 255
    202e:	88 81       	ld	r24, Y
    2030:	99 81       	ldd	r25, Y+1	; 0x01
    2032:	aa 81       	ldd	r26, Y+2	; 0x02
    2034:	bb 81       	ldd	r27, Y+3	; 0x03
    2036:	cb 59       	subi	r28, 0x9B	; 155
    2038:	d0 40       	sbci	r29, 0x00	; 0
    203a:	8e a7       	std	Y+46, r24	; 0x2e
    203c:	9f a7       	std	Y+47, r25	; 0x2f
    203e:	a8 ab       	std	Y+48, r26	; 0x30
    2040:	b9 ab       	std	Y+49, r27	; 0x31

00002042 <.LBB192>:
	__tmp = ((F_CPU) / 4e3) * __ms;
    2042:	20 e0       	ldi	r18, 0x00	; 0
    2044:	30 e0       	ldi	r19, 0x00	; 0
    2046:	4a e7       	ldi	r20, 0x7A	; 122
    2048:	55 e4       	ldi	r21, 0x45	; 69
    204a:	6e a5       	ldd	r22, Y+46	; 0x2e
    204c:	7f a5       	ldd	r23, Y+47	; 0x2f
    204e:	88 a9       	ldd	r24, Y+48	; 0x30
    2050:	99 a9       	ldd	r25, Y+49	; 0x31
    2052:	0e 94 58 15 	call	0x2ab0	; 0x2ab0 <__mulsf3>
    2056:	c1 56       	subi	r28, 0x61	; 97
    2058:	df 4f       	sbci	r29, 0xFF	; 255
    205a:	68 83       	st	Y, r22
    205c:	79 83       	std	Y+1, r23	; 0x01
    205e:	8a 83       	std	Y+2, r24	; 0x02
    2060:	9b 83       	std	Y+3, r25	; 0x03
    2062:	cf 59       	subi	r28, 0x9F	; 159
    2064:	d0 40       	sbci	r29, 0x00	; 0
    2066:	c1 56       	subi	r28, 0x61	; 97
    2068:	df 4f       	sbci	r29, 0xFF	; 255
    206a:	88 81       	ld	r24, Y
    206c:	99 81       	ldd	r25, Y+1	; 0x01
    206e:	aa 81       	ldd	r26, Y+2	; 0x02
    2070:	bb 81       	ldd	r27, Y+3	; 0x03
    2072:	cf 59       	subi	r28, 0x9F	; 159
    2074:	d0 40       	sbci	r29, 0x00	; 0
    2076:	8a ab       	std	Y+50, r24	; 0x32
    2078:	9b ab       	std	Y+51, r25	; 0x33
    207a:	ac ab       	std	Y+52, r26	; 0x34
    207c:	bd ab       	std	Y+53, r27	; 0x35

0000207e <.Loc.254>:
	if (__tmp < 1.0)
    207e:	20 e0       	ldi	r18, 0x00	; 0
    2080:	30 e0       	ldi	r19, 0x00	; 0
    2082:	40 e8       	ldi	r20, 0x80	; 128
    2084:	5f e3       	ldi	r21, 0x3F	; 63
    2086:	6a a9       	ldd	r22, Y+50	; 0x32
    2088:	7b a9       	ldd	r23, Y+51	; 0x33
    208a:	8c a9       	ldd	r24, Y+52	; 0x34
    208c:	9d a9       	ldd	r25, Y+53	; 0x35
    208e:	0e 94 f4 13 	call	0x27e8	; 0x27e8 <__cmpsf2>
    2092:	88 23       	and	r24, r24
    2094:	2c f4       	brge	.+10     	; 0x20a0 <.L202>

00002096 <.Loc.255>:
		__ticks = 1;
    2096:	81 e0       	ldi	r24, 0x01	; 1
    2098:	90 e0       	ldi	r25, 0x00	; 0
    209a:	9f ab       	std	Y+55, r25	; 0x37
    209c:	8e ab       	std	Y+54, r24	; 0x36
    209e:	72 c0       	rjmp	.+228    	; 0x2184 <.L165>

000020a0 <.L202>:
	else if (__tmp > 65535)
    20a0:	20 e0       	ldi	r18, 0x00	; 0
    20a2:	3f ef       	ldi	r19, 0xFF	; 255
    20a4:	4f e7       	ldi	r20, 0x7F	; 127
    20a6:	57 e4       	ldi	r21, 0x47	; 71
    20a8:	6a a9       	ldd	r22, Y+50	; 0x32
    20aa:	7b a9       	ldd	r23, Y+51	; 0x33
    20ac:	8c a9       	ldd	r24, Y+52	; 0x34
    20ae:	9d a9       	ldd	r25, Y+53	; 0x35
    20b0:	0e 94 53 15 	call	0x2aa6	; 0x2aa6 <__gesf2>
    20b4:	88 23       	and	r24, r24
    20b6:	09 f0       	breq	.+2      	; 0x20ba <L0^A>

000020b8 <L0^A>:
    20b8:	0c f4       	brge	.+2      	; 0x20bc <.Loc.257>

000020ba <L0^A>:
    20ba:	4e c0       	rjmp	.+156    	; 0x2158 <.L203>

000020bc <.Loc.257>:
		__ticks = (uint16_t) (__ms * 10.0);
    20bc:	20 e0       	ldi	r18, 0x00	; 0
    20be:	30 e0       	ldi	r19, 0x00	; 0
    20c0:	40 e2       	ldi	r20, 0x20	; 32
    20c2:	51 e4       	ldi	r21, 0x41	; 65
    20c4:	6e a5       	ldd	r22, Y+46	; 0x2e
    20c6:	7f a5       	ldd	r23, Y+47	; 0x2f
    20c8:	88 a9       	ldd	r24, Y+48	; 0x30
    20ca:	99 a9       	ldd	r25, Y+49	; 0x31
    20cc:	0e 94 58 15 	call	0x2ab0	; 0x2ab0 <__mulsf3>
    20d0:	cd 55       	subi	r28, 0x5D	; 93
    20d2:	df 4f       	sbci	r29, 0xFF	; 255
    20d4:	68 83       	st	Y, r22
    20d6:	79 83       	std	Y+1, r23	; 0x01
    20d8:	8a 83       	std	Y+2, r24	; 0x02
    20da:	9b 83       	std	Y+3, r25	; 0x03
    20dc:	c3 5a       	subi	r28, 0xA3	; 163
    20de:	d0 40       	sbci	r29, 0x00	; 0
    20e0:	cd 55       	subi	r28, 0x5D	; 93
    20e2:	df 4f       	sbci	r29, 0xFF	; 255
    20e4:	88 81       	ld	r24, Y
    20e6:	99 81       	ldd	r25, Y+1	; 0x01
    20e8:	aa 81       	ldd	r26, Y+2	; 0x02
    20ea:	bb 81       	ldd	r27, Y+3	; 0x03
    20ec:	c3 5a       	subi	r28, 0xA3	; 163
    20ee:	d0 40       	sbci	r29, 0x00	; 0
    20f0:	ab 96       	adiw	r28, 0x2b	; 43
    20f2:	8c af       	std	Y+60, r24	; 0x3c
    20f4:	9d af       	std	Y+61, r25	; 0x3d
    20f6:	ae af       	std	Y+62, r26	; 0x3e
    20f8:	bf af       	std	Y+63, r27	; 0x3f
    20fa:	ab 97       	sbiw	r28, 0x2b	; 43

000020fc <.Loc.258>:
    20fc:	ab 96       	adiw	r28, 0x2b	; 43
    20fe:	6c ad       	ldd	r22, Y+60	; 0x3c
    2100:	7d ad       	ldd	r23, Y+61	; 0x3d
    2102:	8e ad       	ldd	r24, Y+62	; 0x3e
    2104:	9f ad       	ldd	r25, Y+63	; 0x3f
    2106:	ab 97       	sbiw	r28, 0x2b	; 43
    2108:	0e 94 72 14 	call	0x28e4	; 0x28e4 <__fixunssfsi>
    210c:	c9 55       	subi	r28, 0x59	; 89
    210e:	df 4f       	sbci	r29, 0xFF	; 255
    2110:	68 83       	st	Y, r22
    2112:	79 83       	std	Y+1, r23	; 0x01
    2114:	8a 83       	std	Y+2, r24	; 0x02
    2116:	9b 83       	std	Y+3, r25	; 0x03
    2118:	c7 5a       	subi	r28, 0xA7	; 167
    211a:	d0 40       	sbci	r29, 0x00	; 0
    211c:	c9 55       	subi	r28, 0x59	; 89
    211e:	df 4f       	sbci	r29, 0xFF	; 255
    2120:	a8 81       	ld	r26, Y
    2122:	b9 81       	ldd	r27, Y+1	; 0x01
    2124:	c7 5a       	subi	r28, 0xA7	; 167
    2126:	d0 40       	sbci	r29, 0x00	; 0
    2128:	bf ab       	std	Y+55, r27	; 0x37
    212a:	ae ab       	std	Y+54, r26	; 0x36

0000212c <.Loc.259>:
		while(__ticks)
    212c:	10 c0       	rjmp	.+32     	; 0x214e <.L168>

0000212e <.L169>:
    212e:	80 e9       	ldi	r24, 0x90	; 144
    2130:	91 e0       	ldi	r25, 0x01	; 1
    2132:	99 af       	std	Y+57, r25	; 0x39
    2134:	88 af       	std	Y+56, r24	; 0x38

00002136 <.LBB194>:
	__asm__ volatile (
    2136:	88 ad       	ldd	r24, Y+56	; 0x38
    2138:	99 ad       	ldd	r25, Y+57	; 0x39

0000213a <.L1^B25>:
    213a:	01 97       	sbiw	r24, 0x01	; 1
    213c:	f1 f7       	brne	.-4      	; 0x213a <.L1^B25>
    213e:	99 af       	std	Y+57, r25	; 0x39
    2140:	88 af       	std	Y+56, r24	; 0x38

00002142 <.Loc.261>:
	...

00002144 <.LBE194>:
			__ticks --;
    2144:	8e a9       	ldd	r24, Y+54	; 0x36
    2146:	9f a9       	ldd	r25, Y+55	; 0x37
    2148:	01 97       	sbiw	r24, 0x01	; 1
    214a:	9f ab       	std	Y+55, r25	; 0x37
    214c:	8e ab       	std	Y+54, r24	; 0x36

0000214e <.L168>:
		while(__ticks)
    214e:	8e a9       	ldd	r24, Y+54	; 0x36
    2150:	9f a9       	ldd	r25, Y+55	; 0x37
    2152:	00 97       	sbiw	r24, 0x00	; 0
    2154:	61 f7       	brne	.-40     	; 0x212e <.L169>

00002156 <.Loc.264>:
		return;
    2156:	64 c0       	rjmp	.+200    	; 0x2220 <.L160>

00002158 <.L203>:
		__ticks = (uint16_t)__tmp;
    2158:	6a a9       	ldd	r22, Y+50	; 0x32
    215a:	7b a9       	ldd	r23, Y+51	; 0x33
    215c:	8c a9       	ldd	r24, Y+52	; 0x34
    215e:	9d a9       	ldd	r25, Y+53	; 0x35
    2160:	0e 94 72 14 	call	0x28e4	; 0x28e4 <__fixunssfsi>
    2164:	c5 55       	subi	r28, 0x55	; 85
    2166:	df 4f       	sbci	r29, 0xFF	; 255
    2168:	68 83       	st	Y, r22
    216a:	79 83       	std	Y+1, r23	; 0x01
    216c:	8a 83       	std	Y+2, r24	; 0x02
    216e:	9b 83       	std	Y+3, r25	; 0x03
    2170:	cb 5a       	subi	r28, 0xAB	; 171
    2172:	d0 40       	sbci	r29, 0x00	; 0
    2174:	c5 55       	subi	r28, 0x55	; 85
    2176:	df 4f       	sbci	r29, 0xFF	; 255
    2178:	e8 81       	ld	r30, Y
    217a:	f9 81       	ldd	r31, Y+1	; 0x01
    217c:	cb 5a       	subi	r28, 0xAB	; 171
    217e:	d0 40       	sbci	r29, 0x00	; 0
    2180:	ff ab       	std	Y+55, r31	; 0x37
    2182:	ee ab       	std	Y+54, r30	; 0x36

00002184 <.L165>:
    2184:	8e a9       	ldd	r24, Y+54	; 0x36
    2186:	9f a9       	ldd	r25, Y+55	; 0x37
    2188:	9b af       	std	Y+59, r25	; 0x3b
    218a:	8a af       	std	Y+58, r24	; 0x3a

0000218c <.LBB196>:
    218c:	8a ad       	ldd	r24, Y+58	; 0x3a
    218e:	9b ad       	ldd	r25, Y+59	; 0x3b

00002190 <.L1^B26>:
    2190:	01 97       	sbiw	r24, 0x01	; 1
    2192:	f1 f7       	brne	.-4      	; 0x2190 <.L1^B26>
    2194:	9b af       	std	Y+59, r25	; 0x3b
    2196:	8a af       	std	Y+58, r24	; 0x3a

00002198 <.Loc.267>:
}
    2198:	43 c0       	rjmp	.+134    	; 0x2220 <.L160>

0000219a <.L201>:
	else if (__tmp > 255)
    219a:	20 e0       	ldi	r18, 0x00	; 0
    219c:	30 e0       	ldi	r19, 0x00	; 0
    219e:	4f e7       	ldi	r20, 0x7F	; 127
    21a0:	53 e4       	ldi	r21, 0x43	; 67
    21a2:	6d a1       	ldd	r22, Y+37	; 0x25
    21a4:	7e a1       	ldd	r23, Y+38	; 0x26
    21a6:	8f a1       	ldd	r24, Y+39	; 0x27
    21a8:	98 a5       	ldd	r25, Y+40	; 0x28
    21aa:	0e 94 53 15 	call	0x2aa6	; 0x2aa6 <__gesf2>
    21ae:	88 23       	and	r24, r24
    21b0:	19 f1       	breq	.+70     	; 0x21f8 <.L204>
    21b2:	14 f1       	brlt	.+68     	; 0x21f8 <.L204>

000021b4 <.LBB198>:
		uint16_t __ticks=(uint16_t)__tmp2;
    21b4:	69 a5       	ldd	r22, Y+41	; 0x29
    21b6:	7a a5       	ldd	r23, Y+42	; 0x2a
    21b8:	8b a5       	ldd	r24, Y+43	; 0x2b
    21ba:	9c a5       	ldd	r25, Y+44	; 0x2c
    21bc:	0e 94 72 14 	call	0x28e4	; 0x28e4 <__fixunssfsi>
    21c0:	c1 55       	subi	r28, 0x51	; 81
    21c2:	df 4f       	sbci	r29, 0xFF	; 255
    21c4:	68 83       	st	Y, r22
    21c6:	79 83       	std	Y+1, r23	; 0x01
    21c8:	8a 83       	std	Y+2, r24	; 0x02
    21ca:	9b 83       	std	Y+3, r25	; 0x03
    21cc:	cf 5a       	subi	r28, 0xAF	; 175
    21ce:	d0 40       	sbci	r29, 0x00	; 0
    21d0:	c1 55       	subi	r28, 0x51	; 81
    21d2:	df 4f       	sbci	r29, 0xFF	; 255
    21d4:	88 81       	ld	r24, Y
    21d6:	99 81       	ldd	r25, Y+1	; 0x01
    21d8:	cf 5a       	subi	r28, 0xAF	; 175
    21da:	d0 40       	sbci	r29, 0x00	; 0
    21dc:	9d af       	std	Y+61, r25	; 0x3d
    21de:	8c af       	std	Y+60, r24	; 0x3c
    21e0:	8c ad       	ldd	r24, Y+60	; 0x3c
    21e2:	9d ad       	ldd	r25, Y+61	; 0x3d
    21e4:	9f af       	std	Y+63, r25	; 0x3f
    21e6:	8e af       	std	Y+62, r24	; 0x3e

000021e8 <.LBB199>:
	__asm__ volatile (
    21e8:	8e ad       	ldd	r24, Y+62	; 0x3e
    21ea:	9f ad       	ldd	r25, Y+63	; 0x3f

000021ec <.L1^B27>:
    21ec:	01 97       	sbiw	r24, 0x01	; 1
    21ee:	f1 f7       	brne	.-4      	; 0x21ec <.L1^B27>
    21f0:	9f af       	std	Y+63, r25	; 0x3f
    21f2:	8e af       	std	Y+62, r24	; 0x3e

000021f4 <.Loc.271>:
	...

000021f6 <.LBE199>:
		return;
    21f6:	28 c0       	rjmp	.+80     	; 0x2248 <.L173>

000021f8 <.L204>:
		__ticks = (uint8_t)__tmp;
    21f8:	6d a1       	ldd	r22, Y+37	; 0x25
    21fa:	7e a1       	ldd	r23, Y+38	; 0x26
    21fc:	8f a1       	ldd	r24, Y+39	; 0x27
    21fe:	98 a5       	ldd	r25, Y+40	; 0x28
    2200:	0e 94 72 14 	call	0x28e4	; 0x28e4 <__fixunssfsi>
    2204:	cd 54       	subi	r28, 0x4D	; 77
    2206:	df 4f       	sbci	r29, 0xFF	; 255
    2208:	68 83       	st	Y, r22
    220a:	79 83       	std	Y+1, r23	; 0x01
    220c:	8a 83       	std	Y+2, r24	; 0x02
    220e:	9b 83       	std	Y+3, r25	; 0x03
    2210:	c3 5b       	subi	r28, 0xB3	; 179
    2212:	d0 40       	sbci	r29, 0x00	; 0
    2214:	cd 54       	subi	r28, 0x4D	; 77
    2216:	df 4f       	sbci	r29, 0xFF	; 255
    2218:	98 81       	ld	r25, Y
    221a:	c3 5b       	subi	r28, 0xB3	; 179
    221c:	d0 40       	sbci	r29, 0x00	; 0
    221e:	9d a7       	std	Y+45, r25	; 0x2d

00002220 <.L160>:
    2220:	2d a5       	ldd	r18, Y+45	; 0x2d
    2222:	ce 01       	movw	r24, r28
    2224:	80 5c       	subi	r24, 0xC0	; 192
    2226:	9f 4f       	sbci	r25, 0xFF	; 255
    2228:	dc 01       	movw	r26, r24
    222a:	2c 93       	st	X, r18

0000222c <.LBB201>:
	__asm__ volatile (
    222c:	ce 01       	movw	r24, r28
    222e:	80 5c       	subi	r24, 0xC0	; 192
    2230:	9f 4f       	sbci	r25, 0xFF	; 255
    2232:	fc 01       	movw	r30, r24
    2234:	80 81       	ld	r24, Z
    2236:	28 2f       	mov	r18, r24

00002238 <.L1^B28>:
    2238:	2a 95       	dec	r18
    223a:	f1 f7       	brne	.-4      	; 0x2238 <.L1^B28>
    223c:	ce 01       	movw	r24, r28
    223e:	80 5c       	subi	r24, 0xC0	; 192
    2240:	9f 4f       	sbci	r25, 0xFF	; 255
    2242:	dc 01       	movw	r26, r24
    2244:	2c 93       	st	X, r18

00002246 <.Loc.275>:
	...

00002248 <.L173>:
    {
        _delay_us(1);
        duration++;
    2248:	80 91 08 02 	lds	r24, 0x0208	; 0x800208 <duration>
    224c:	90 91 09 02 	lds	r25, 0x0209	; 0x800209 <duration+0x1>
    2250:	a0 91 0a 02 	lds	r26, 0x020A	; 0x80020a <duration+0x2>
    2254:	b0 91 0b 02 	lds	r27, 0x020B	; 0x80020b <duration+0x3>
    2258:	01 96       	adiw	r24, 0x01	; 1
    225a:	a1 1d       	adc	r26, r1
    225c:	b1 1d       	adc	r27, r1
    225e:	80 93 08 02 	sts	0x0208, r24	; 0x800208 <duration>
    2262:	90 93 09 02 	sts	0x0209, r25	; 0x800209 <duration+0x1>
    2266:	a0 93 0a 02 	sts	0x020A, r26	; 0x80020a <duration+0x2>
    226a:	b0 93 0b 02 	sts	0x020B, r27	; 0x80020b <duration+0x3>

0000226e <.L157>:
    while (PIND & (1 << USL_ECHO))
    226e:	89 e2       	ldi	r24, 0x29	; 41
    2270:	90 e0       	ldi	r25, 0x00	; 0
    2272:	fc 01       	movw	r30, r24
    2274:	80 81       	ld	r24, Z

00002276 <.Loc.278>:
    2276:	88 2f       	mov	r24, r24
    2278:	90 e0       	ldi	r25, 0x00	; 0
    227a:	80 72       	andi	r24, 0x20	; 32
    227c:	99 27       	eor	r25, r25

0000227e <.Loc.279>:
    227e:	00 97       	sbiw	r24, 0x00	; 0
    2280:	09 f0       	breq	.+2      	; 0x2284 <.Loc.280>

00002282 <L0^A>:
    2282:	60 ce       	rjmp	.-832    	; 0x1f44 <.L174>

00002284 <.Loc.280>:
    }
    distance_L = duration * 0.034 / 2;
    2284:	80 91 08 02 	lds	r24, 0x0208	; 0x800208 <duration>
    2288:	90 91 09 02 	lds	r25, 0x0209	; 0x800209 <duration+0x1>
    228c:	a0 91 0a 02 	lds	r26, 0x020A	; 0x80020a <duration+0x2>
    2290:	b0 91 0b 02 	lds	r27, 0x020B	; 0x80020b <duration+0x3>
    2294:	63 96       	adiw	r28, 0x13	; 19
    2296:	8c af       	std	Y+60, r24	; 0x3c
    2298:	9d af       	std	Y+61, r25	; 0x3d
    229a:	ae af       	std	Y+62, r26	; 0x3e
    229c:	bf af       	std	Y+63, r27	; 0x3f
    229e:	63 97       	sbiw	r28, 0x13	; 19
    22a0:	63 96       	adiw	r28, 0x13	; 19
    22a2:	6c ad       	ldd	r22, Y+60	; 0x3c
    22a4:	7d ad       	ldd	r23, Y+61	; 0x3d
    22a6:	8e ad       	ldd	r24, Y+62	; 0x3e
    22a8:	9f ad       	ldd	r25, Y+63	; 0x3f
    22aa:	63 97       	sbiw	r28, 0x13	; 19
    22ac:	0e 94 a3 14 	call	0x2946	; 0x2946 <__floatsisf>
    22b0:	67 96       	adiw	r28, 0x17	; 23
    22b2:	6c af       	std	Y+60, r22	; 0x3c
    22b4:	7d af       	std	Y+61, r23	; 0x3d
    22b6:	8e af       	std	Y+62, r24	; 0x3e
    22b8:	9f af       	std	Y+63, r25	; 0x3f
    22ba:	67 97       	sbiw	r28, 0x17	; 23
    22bc:	26 e9       	ldi	r18, 0x96	; 150
    22be:	33 e4       	ldi	r19, 0x43	; 67
    22c0:	4b e0       	ldi	r20, 0x0B	; 11
    22c2:	5d e3       	ldi	r21, 0x3D	; 61
    22c4:	67 96       	adiw	r28, 0x17	; 23
    22c6:	6c ad       	ldd	r22, Y+60	; 0x3c
    22c8:	7d ad       	ldd	r23, Y+61	; 0x3d
    22ca:	8e ad       	ldd	r24, Y+62	; 0x3e
    22cc:	9f ad       	ldd	r25, Y+63	; 0x3f
    22ce:	67 97       	sbiw	r28, 0x17	; 23
    22d0:	0e 94 58 15 	call	0x2ab0	; 0x2ab0 <__mulsf3>
    22d4:	c9 54       	subi	r28, 0x49	; 73
    22d6:	df 4f       	sbci	r29, 0xFF	; 255
    22d8:	68 83       	st	Y, r22
    22da:	79 83       	std	Y+1, r23	; 0x01
    22dc:	8a 83       	std	Y+2, r24	; 0x02
    22de:	9b 83       	std	Y+3, r25	; 0x03
    22e0:	c7 5b       	subi	r28, 0xB7	; 183
    22e2:	d0 40       	sbci	r29, 0x00	; 0
    22e4:	c9 54       	subi	r28, 0x49	; 73
    22e6:	df 4f       	sbci	r29, 0xFF	; 255
    22e8:	88 81       	ld	r24, Y
    22ea:	99 81       	ldd	r25, Y+1	; 0x01
    22ec:	aa 81       	ldd	r26, Y+2	; 0x02
    22ee:	bb 81       	ldd	r27, Y+3	; 0x03
    22f0:	c7 5b       	subi	r28, 0xB7	; 183
    22f2:	d0 40       	sbci	r29, 0x00	; 0
    22f4:	6b 96       	adiw	r28, 0x1b	; 27
    22f6:	8c af       	std	Y+60, r24	; 0x3c
    22f8:	9d af       	std	Y+61, r25	; 0x3d
    22fa:	ae af       	std	Y+62, r26	; 0x3e
    22fc:	bf af       	std	Y+63, r27	; 0x3f
    22fe:	6b 97       	sbiw	r28, 0x1b	; 27

00002300 <.Loc.281>:
    2300:	20 e0       	ldi	r18, 0x00	; 0
    2302:	30 e0       	ldi	r19, 0x00	; 0
    2304:	40 e0       	ldi	r20, 0x00	; 0
    2306:	50 e4       	ldi	r21, 0x40	; 64
    2308:	6b 96       	adiw	r28, 0x1b	; 27
    230a:	6c ad       	ldd	r22, Y+60	; 0x3c
    230c:	7d ad       	ldd	r23, Y+61	; 0x3d
    230e:	8e ad       	ldd	r24, Y+62	; 0x3e
    2310:	9f ad       	ldd	r25, Y+63	; 0x3f
    2312:	6b 97       	sbiw	r28, 0x1b	; 27
    2314:	0e 94 f9 13 	call	0x27f2	; 0x27f2 <__divsf3>
    2318:	c5 54       	subi	r28, 0x45	; 69
    231a:	df 4f       	sbci	r29, 0xFF	; 255
    231c:	68 83       	st	Y, r22
    231e:	79 83       	std	Y+1, r23	; 0x01
    2320:	8a 83       	std	Y+2, r24	; 0x02
    2322:	9b 83       	std	Y+3, r25	; 0x03
    2324:	cb 5b       	subi	r28, 0xBB	; 187
    2326:	d0 40       	sbci	r29, 0x00	; 0
    2328:	c5 54       	subi	r28, 0x45	; 69
    232a:	df 4f       	sbci	r29, 0xFF	; 255
    232c:	88 81       	ld	r24, Y
    232e:	99 81       	ldd	r25, Y+1	; 0x01
    2330:	aa 81       	ldd	r26, Y+2	; 0x02
    2332:	bb 81       	ldd	r27, Y+3	; 0x03
    2334:	cb 5b       	subi	r28, 0xBB	; 187
    2336:	d0 40       	sbci	r29, 0x00	; 0
    2338:	6f 96       	adiw	r28, 0x1f	; 31
    233a:	8c af       	std	Y+60, r24	; 0x3c
    233c:	9d af       	std	Y+61, r25	; 0x3d
    233e:	ae af       	std	Y+62, r26	; 0x3e
    2340:	bf af       	std	Y+63, r27	; 0x3f
    2342:	6f 97       	sbiw	r28, 0x1f	; 31

00002344 <.Loc.282>:
    2344:	6f 96       	adiw	r28, 0x1f	; 31
    2346:	6c ad       	ldd	r22, Y+60	; 0x3c
    2348:	7d ad       	ldd	r23, Y+61	; 0x3d
    234a:	8e ad       	ldd	r24, Y+62	; 0x3e
    234c:	9f ad       	ldd	r25, Y+63	; 0x3f
    234e:	6f 97       	sbiw	r28, 0x1f	; 31
    2350:	0e 94 6b 14 	call	0x28d6	; 0x28d6 <__fixsfsi>
    2354:	a3 96       	adiw	r28, 0x23	; 35
    2356:	6c af       	std	Y+60, r22	; 0x3c
    2358:	7d af       	std	Y+61, r23	; 0x3d
    235a:	8e af       	std	Y+62, r24	; 0x3e
    235c:	9f af       	std	Y+63, r25	; 0x3f
    235e:	a3 97       	sbiw	r28, 0x23	; 35
    2360:	a3 96       	adiw	r28, 0x23	; 35
    2362:	8c ad       	ldd	r24, Y+60	; 0x3c
    2364:	9d ad       	ldd	r25, Y+61	; 0x3d
    2366:	ae ad       	ldd	r26, Y+62	; 0x3e
    2368:	bf ad       	ldd	r27, Y+63	; 0x3f
    236a:	a3 97       	sbiw	r28, 0x23	; 35
    236c:	80 93 14 02 	sts	0x0214, r24	; 0x800214 <distance_L>
    2370:	90 93 15 02 	sts	0x0215, r25	; 0x800215 <distance_L+0x1>
    2374:	a0 93 16 02 	sts	0x0216, r26	; 0x800216 <distance_L+0x2>
    2378:	b0 93 17 02 	sts	0x0217, r27	; 0x800217 <distance_L+0x3>
    237c:	9e 01       	movw	r18, r28
    237e:	2f 5b       	subi	r18, 0xBF	; 191
    2380:	3f 4f       	sbci	r19, 0xFF	; 255
    2382:	80 e0       	ldi	r24, 0x00	; 0
    2384:	90 e0       	ldi	r25, 0x00	; 0
    2386:	a0 e2       	ldi	r26, 0x20	; 32
    2388:	b1 e4       	ldi	r27, 0x41	; 65
    238a:	f9 01       	movw	r30, r18
    238c:	80 83       	st	Z, r24
    238e:	91 83       	std	Z+1, r25	; 0x01
    2390:	a2 83       	std	Z+2, r26	; 0x02
    2392:	b3 83       	std	Z+3, r27	; 0x03

00002394 <.LBB203>:
	__tmp = ((F_CPU) / 4e3) * __ms;
    2394:	8e 01       	movw	r16, r28
    2396:	0b 5b       	subi	r16, 0xBB	; 187
    2398:	1f 4f       	sbci	r17, 0xFF	; 255
    239a:	ce 01       	movw	r24, r28
    239c:	8f 5b       	subi	r24, 0xBF	; 191
    239e:	9f 4f       	sbci	r25, 0xFF	; 255
    23a0:	20 e0       	ldi	r18, 0x00	; 0
    23a2:	30 e0       	ldi	r19, 0x00	; 0
    23a4:	4a e7       	ldi	r20, 0x7A	; 122
    23a6:	55 e4       	ldi	r21, 0x45	; 69
    23a8:	dc 01       	movw	r26, r24
    23aa:	6d 91       	ld	r22, X+
    23ac:	7d 91       	ld	r23, X+
    23ae:	8d 91       	ld	r24, X+
    23b0:	9c 91       	ld	r25, X
    23b2:	0e 94 58 15 	call	0x2ab0	; 0x2ab0 <__mulsf3>
    23b6:	c1 54       	subi	r28, 0x41	; 65
    23b8:	df 4f       	sbci	r29, 0xFF	; 255
    23ba:	68 83       	st	Y, r22
    23bc:	79 83       	std	Y+1, r23	; 0x01
    23be:	8a 83       	std	Y+2, r24	; 0x02
    23c0:	9b 83       	std	Y+3, r25	; 0x03
    23c2:	cf 5b       	subi	r28, 0xBF	; 191
    23c4:	d0 40       	sbci	r29, 0x00	; 0
    23c6:	c1 54       	subi	r28, 0x41	; 65
    23c8:	df 4f       	sbci	r29, 0xFF	; 255
    23ca:	88 81       	ld	r24, Y
    23cc:	99 81       	ldd	r25, Y+1	; 0x01
    23ce:	aa 81       	ldd	r26, Y+2	; 0x02
    23d0:	bb 81       	ldd	r27, Y+3	; 0x03
    23d2:	cf 5b       	subi	r28, 0xBF	; 191
    23d4:	d0 40       	sbci	r29, 0x00	; 0
    23d6:	f8 01       	movw	r30, r16
    23d8:	80 83       	st	Z, r24
    23da:	91 83       	std	Z+1, r25	; 0x01
    23dc:	a2 83       	std	Z+2, r26	; 0x02
    23de:	b3 83       	std	Z+3, r27	; 0x03

000023e0 <.Loc.284>:
	if (__tmp < 1.0)
    23e0:	ce 01       	movw	r24, r28
    23e2:	8b 5b       	subi	r24, 0xBB	; 187
    23e4:	9f 4f       	sbci	r25, 0xFF	; 255
    23e6:	20 e0       	ldi	r18, 0x00	; 0
    23e8:	30 e0       	ldi	r19, 0x00	; 0
    23ea:	40 e8       	ldi	r20, 0x80	; 128
    23ec:	5f e3       	ldi	r21, 0x3F	; 63
    23ee:	dc 01       	movw	r26, r24
    23f0:	6d 91       	ld	r22, X+
    23f2:	7d 91       	ld	r23, X+
    23f4:	8d 91       	ld	r24, X+
    23f6:	9c 91       	ld	r25, X
    23f8:	0e 94 f4 13 	call	0x27e8	; 0x27e8 <__cmpsf2>
    23fc:	88 23       	and	r24, r24
    23fe:	4c f4       	brge	.+18     	; 0x2412 <.L205>

00002400 <.Loc.285>:
		__ticks = 1;
    2400:	ce 01       	movw	r24, r28
    2402:	87 5b       	subi	r24, 0xB7	; 183
    2404:	9f 4f       	sbci	r25, 0xFF	; 255
    2406:	21 e0       	ldi	r18, 0x01	; 1
    2408:	30 e0       	ldi	r19, 0x00	; 0
    240a:	fc 01       	movw	r30, r24
    240c:	31 83       	std	Z+1, r19	; 0x01
    240e:	20 83       	st	Z, r18
    2410:	a1 c0       	rjmp	.+322    	; 0x2554 <.L177>

00002412 <.L205>:
	else if (__tmp > 65535)
    2412:	ce 01       	movw	r24, r28
    2414:	8b 5b       	subi	r24, 0xBB	; 187
    2416:	9f 4f       	sbci	r25, 0xFF	; 255
    2418:	20 e0       	ldi	r18, 0x00	; 0
    241a:	3f ef       	ldi	r19, 0xFF	; 255
    241c:	4f e7       	ldi	r20, 0x7F	; 127
    241e:	57 e4       	ldi	r21, 0x47	; 71
    2420:	dc 01       	movw	r26, r24
    2422:	6d 91       	ld	r22, X+
    2424:	7d 91       	ld	r23, X+
    2426:	8d 91       	ld	r24, X+
    2428:	9c 91       	ld	r25, X
    242a:	0e 94 53 15 	call	0x2aa6	; 0x2aa6 <__gesf2>
    242e:	88 23       	and	r24, r24
    2430:	09 f0       	breq	.+2      	; 0x2434 <L0^A>

00002432 <L0^A>:
    2432:	0c f4       	brge	.+2      	; 0x2436 <.Loc.287>

00002434 <L0^A>:
    2434:	71 c0       	rjmp	.+226    	; 0x2518 <.L206>

00002436 <.Loc.287>:
		__ticks = (uint16_t) (__ms * 10.0);
    2436:	ce 01       	movw	r24, r28
    2438:	8f 5b       	subi	r24, 0xBF	; 191
    243a:	9f 4f       	sbci	r25, 0xFF	; 255
    243c:	20 e0       	ldi	r18, 0x00	; 0
    243e:	30 e0       	ldi	r19, 0x00	; 0
    2440:	40 e2       	ldi	r20, 0x20	; 32
    2442:	51 e4       	ldi	r21, 0x41	; 65
    2444:	fc 01       	movw	r30, r24
    2446:	60 81       	ld	r22, Z
    2448:	71 81       	ldd	r23, Z+1	; 0x01
    244a:	82 81       	ldd	r24, Z+2	; 0x02
    244c:	93 81       	ldd	r25, Z+3	; 0x03
    244e:	0e 94 58 15 	call	0x2ab0	; 0x2ab0 <__mulsf3>
    2452:	cd 53       	subi	r28, 0x3D	; 61
    2454:	df 4f       	sbci	r29, 0xFF	; 255
    2456:	68 83       	st	Y, r22
    2458:	79 83       	std	Y+1, r23	; 0x01
    245a:	8a 83       	std	Y+2, r24	; 0x02
    245c:	9b 83       	std	Y+3, r25	; 0x03
    245e:	c3 5c       	subi	r28, 0xC3	; 195
    2460:	d0 40       	sbci	r29, 0x00	; 0
    2462:	cd 53       	subi	r28, 0x3D	; 61
    2464:	df 4f       	sbci	r29, 0xFF	; 255
    2466:	88 81       	ld	r24, Y
    2468:	99 81       	ldd	r25, Y+1	; 0x01
    246a:	aa 81       	ldd	r26, Y+2	; 0x02
    246c:	bb 81       	ldd	r27, Y+3	; 0x03
    246e:	c3 5c       	subi	r28, 0xC3	; 195
    2470:	d0 40       	sbci	r29, 0x00	; 0
    2472:	af 96       	adiw	r28, 0x2f	; 47
    2474:	8c af       	std	Y+60, r24	; 0x3c
    2476:	9d af       	std	Y+61, r25	; 0x3d
    2478:	ae af       	std	Y+62, r26	; 0x3e
    247a:	bf af       	std	Y+63, r27	; 0x3f
    247c:	af 97       	sbiw	r28, 0x2f	; 47

0000247e <.Loc.288>:
    247e:	8e 01       	movw	r16, r28
    2480:	07 5b       	subi	r16, 0xB7	; 183
    2482:	1f 4f       	sbci	r17, 0xFF	; 255
    2484:	af 96       	adiw	r28, 0x2f	; 47
    2486:	6c ad       	ldd	r22, Y+60	; 0x3c
    2488:	7d ad       	ldd	r23, Y+61	; 0x3d
    248a:	8e ad       	ldd	r24, Y+62	; 0x3e
    248c:	9f ad       	ldd	r25, Y+63	; 0x3f
    248e:	af 97       	sbiw	r28, 0x2f	; 47
    2490:	0e 94 72 14 	call	0x28e4	; 0x28e4 <__fixunssfsi>
    2494:	c9 53       	subi	r28, 0x39	; 57
    2496:	df 4f       	sbci	r29, 0xFF	; 255
    2498:	68 83       	st	Y, r22
    249a:	79 83       	std	Y+1, r23	; 0x01
    249c:	8a 83       	std	Y+2, r24	; 0x02
    249e:	9b 83       	std	Y+3, r25	; 0x03
    24a0:	c7 5c       	subi	r28, 0xC7	; 199
    24a2:	d0 40       	sbci	r29, 0x00	; 0
    24a4:	c9 53       	subi	r28, 0x39	; 57
    24a6:	df 4f       	sbci	r29, 0xFF	; 255
    24a8:	e8 81       	ld	r30, Y
    24aa:	f9 81       	ldd	r31, Y+1	; 0x01
    24ac:	c7 5c       	subi	r28, 0xC7	; 199
    24ae:	d0 40       	sbci	r29, 0x00	; 0
    24b0:	d8 01       	movw	r26, r16
    24b2:	11 96       	adiw	r26, 0x01	; 1
    24b4:	fc 93       	st	X, r31
    24b6:	ee 93       	st	-X, r30

000024b8 <.Loc.289>:
		while(__ticks)
    24b8:	26 c0       	rjmp	.+76     	; 0x2506 <.L180>

000024ba <.L181>:
    24ba:	ce 01       	movw	r24, r28
    24bc:	85 5b       	subi	r24, 0xB5	; 181
    24be:	9f 4f       	sbci	r25, 0xFF	; 255
    24c0:	20 e9       	ldi	r18, 0x90	; 144
    24c2:	31 e0       	ldi	r19, 0x01	; 1
    24c4:	dc 01       	movw	r26, r24
    24c6:	2d 93       	st	X+, r18
    24c8:	3c 93       	st	X, r19

000024ca <.LBB205>:
	__asm__ volatile (
    24ca:	ce 01       	movw	r24, r28
    24cc:	85 5b       	subi	r24, 0xB5	; 181
    24ce:	9f 4f       	sbci	r25, 0xFF	; 255
    24d0:	fc 01       	movw	r30, r24
    24d2:	80 81       	ld	r24, Z
    24d4:	91 81       	ldd	r25, Z+1	; 0x01

000024d6 <.L1^B29>:
    24d6:	01 97       	sbiw	r24, 0x01	; 1
    24d8:	f1 f7       	brne	.-4      	; 0x24d6 <.L1^B29>
    24da:	9e 01       	movw	r18, r28
    24dc:	25 5b       	subi	r18, 0xB5	; 181
    24de:	3f 4f       	sbci	r19, 0xFF	; 255
    24e0:	d9 01       	movw	r26, r18
    24e2:	8d 93       	st	X+, r24
    24e4:	9c 93       	st	X, r25

000024e6 <.Loc.291>:
	...

000024e8 <.LBE205>:
			__ticks --;
    24e8:	ce 01       	movw	r24, r28
    24ea:	87 5b       	subi	r24, 0xB7	; 183
    24ec:	9f 4f       	sbci	r25, 0xFF	; 255
    24ee:	9e 01       	movw	r18, r28
    24f0:	27 5b       	subi	r18, 0xB7	; 183
    24f2:	3f 4f       	sbci	r19, 0xFF	; 255
    24f4:	f9 01       	movw	r30, r18
    24f6:	20 81       	ld	r18, Z
    24f8:	31 81       	ldd	r19, Z+1	; 0x01
    24fa:	21 50       	subi	r18, 0x01	; 1
    24fc:	31 09       	sbc	r19, r1
    24fe:	dc 01       	movw	r26, r24
    2500:	11 96       	adiw	r26, 0x01	; 1
    2502:	3c 93       	st	X, r19
    2504:	2e 93       	st	-X, r18

00002506 <.L180>:
		while(__ticks)
    2506:	ce 01       	movw	r24, r28
    2508:	87 5b       	subi	r24, 0xB7	; 183
    250a:	9f 4f       	sbci	r25, 0xFF	; 255
    250c:	fc 01       	movw	r30, r24
    250e:	80 81       	ld	r24, Z
    2510:	91 81       	ldd	r25, Z+1	; 0x01
    2512:	00 97       	sbiw	r24, 0x00	; 0
    2514:	91 f6       	brne	.-92     	; 0x24ba <.L181>

00002516 <.Loc.294>:
		return;
    2516:	3a c0       	rjmp	.+116    	; 0x258c <.L182>

00002518 <.L206>:
		__ticks = (uint16_t)__tmp;
    2518:	8e 01       	movw	r16, r28
    251a:	07 5b       	subi	r16, 0xB7	; 183
    251c:	1f 4f       	sbci	r17, 0xFF	; 255
    251e:	ce 01       	movw	r24, r28
    2520:	8b 5b       	subi	r24, 0xBB	; 187
    2522:	9f 4f       	sbci	r25, 0xFF	; 255
    2524:	dc 01       	movw	r26, r24
    2526:	6d 91       	ld	r22, X+
    2528:	7d 91       	ld	r23, X+
    252a:	8d 91       	ld	r24, X+
    252c:	9c 91       	ld	r25, X
    252e:	0e 94 72 14 	call	0x28e4	; 0x28e4 <__fixunssfsi>
    2532:	c5 53       	subi	r28, 0x35	; 53
    2534:	df 4f       	sbci	r29, 0xFF	; 255
    2536:	68 83       	st	Y, r22
    2538:	79 83       	std	Y+1, r23	; 0x01
    253a:	8a 83       	std	Y+2, r24	; 0x02
    253c:	9b 83       	std	Y+3, r25	; 0x03
    253e:	cb 5c       	subi	r28, 0xCB	; 203
    2540:	d0 40       	sbci	r29, 0x00	; 0
    2542:	c5 53       	subi	r28, 0x35	; 53
    2544:	df 4f       	sbci	r29, 0xFF	; 255
    2546:	88 81       	ld	r24, Y
    2548:	99 81       	ldd	r25, Y+1	; 0x01
    254a:	cb 5c       	subi	r28, 0xCB	; 203
    254c:	d0 40       	sbci	r29, 0x00	; 0
    254e:	f8 01       	movw	r30, r16
    2550:	91 83       	std	Z+1, r25	; 0x01
    2552:	80 83       	st	Z, r24

00002554 <.L177>:
    2554:	ce 01       	movw	r24, r28
    2556:	83 5b       	subi	r24, 0xB3	; 179
    2558:	9f 4f       	sbci	r25, 0xFF	; 255
    255a:	9e 01       	movw	r18, r28
    255c:	27 5b       	subi	r18, 0xB7	; 183
    255e:	3f 4f       	sbci	r19, 0xFF	; 255
    2560:	d9 01       	movw	r26, r18
    2562:	2d 91       	ld	r18, X+
    2564:	3c 91       	ld	r19, X
    2566:	fc 01       	movw	r30, r24
    2568:	31 83       	std	Z+1, r19	; 0x01
    256a:	20 83       	st	Z, r18

0000256c <.LBB207>:
    256c:	ce 01       	movw	r24, r28
    256e:	83 5b       	subi	r24, 0xB3	; 179
    2570:	9f 4f       	sbci	r25, 0xFF	; 255
    2572:	dc 01       	movw	r26, r24
    2574:	8d 91       	ld	r24, X+
    2576:	9c 91       	ld	r25, X
    2578:	11 97       	sbiw	r26, 0x01	; 1

0000257a <.L1^B30>:
    257a:	01 97       	sbiw	r24, 0x01	; 1
    257c:	f1 f7       	brne	.-4      	; 0x257a <.L1^B30>
    257e:	9e 01       	movw	r18, r28
    2580:	23 5b       	subi	r18, 0xB3	; 179
    2582:	3f 4f       	sbci	r19, 0xFF	; 255
    2584:	f9 01       	movw	r30, r18
    2586:	91 83       	std	Z+1, r25	; 0x01
    2588:	80 83       	st	Z, r24

0000258a <.Loc.297>:
	...

0000258c <.L182>:
    _delay_ms(10);
}
    258c:	00 00       	nop
    258e:	c2 53       	subi	r28, 0x32	; 50
    2590:	df 4f       	sbci	r29, 0xFF	; 255
    2592:	0f b6       	in	r0, 0x3f	; 63
    2594:	f8 94       	cli
    2596:	de bf       	out	0x3e, r29	; 62
    2598:	0f be       	out	0x3f, r0	; 63
    259a:	cd bf       	out	0x3d, r28	; 61
    259c:	df 91       	pop	r29
    259e:	cf 91       	pop	r28
    25a0:	1f 91       	pop	r17
    25a2:	0f 91       	pop	r16
    25a4:	08 95       	ret

000025a6 <draaien>:

void draaien()
{
    25a6:	cf 93       	push	r28
    25a8:	df 93       	push	r29
    25aa:	cd b7       	in	r28, 0x3d	; 61
    25ac:	de b7       	in	r29, 0x3e	; 62

000025ae <.Loc.300>:
        //draai motor_L achteruit voor 0,5 sec
        //draai motor_R vooruit voor 0,5 sec
    }

    //draai 90* naar links
}
    25ae:	00 00       	nop
    25b0:	df 91       	pop	r29
    25b2:	cf 91       	pop	r28
    25b4:	08 95       	ret

000025b6 <boom_det>:

void boom_det ()
{
    25b6:	2f 92       	push	r2
    25b8:	3f 92       	push	r3
    25ba:	4f 92       	push	r4
    25bc:	5f 92       	push	r5
    25be:	6f 92       	push	r6
    25c0:	7f 92       	push	r7
    25c2:	8f 92       	push	r8
    25c4:	9f 92       	push	r9
    25c6:	af 92       	push	r10
    25c8:	bf 92       	push	r11
    25ca:	cf 92       	push	r12
    25cc:	df 92       	push	r13
    25ce:	ef 92       	push	r14
    25d0:	ff 92       	push	r15
    25d2:	0f 93       	push	r16
    25d4:	1f 93       	push	r17
    25d6:	cf 93       	push	r28
    25d8:	df 93       	push	r29
    25da:	00 d0       	rcall	.+0      	; 0x25dc <L0^A>

000025dc <L0^A>:
    25dc:	00 d0       	rcall	.+0      	; 0x25de <L0^A>

000025de <L0^A>:
    25de:	0f 92       	push	r0
    25e0:	0f 92       	push	r0
    25e2:	cd b7       	in	r28, 0x3d	; 61
    25e4:	de b7       	in	r29, 0x3e	; 62

000025e6 <.Loc.302>:
    if ((!(PINF & (1<<IR_R))) || (!(PINF & (1<<IR_L))))
    25e6:	8f e2       	ldi	r24, 0x2F	; 47
    25e8:	90 e0       	ldi	r25, 0x00	; 0
    25ea:	fc 01       	movw	r30, r24
    25ec:	80 81       	ld	r24, Z

000025ee <.Loc.303>:
    25ee:	88 2f       	mov	r24, r24
    25f0:	90 e0       	ldi	r25, 0x00	; 0
    25f2:	80 71       	andi	r24, 0x10	; 16
    25f4:	99 27       	eor	r25, r25

000025f6 <.Loc.304>:
    25f6:	00 97       	sbiw	r24, 0x00	; 0
    25f8:	59 f0       	breq	.+22     	; 0x2610 <.L210>

000025fa <.Loc.305>:
    25fa:	8f e2       	ldi	r24, 0x2F	; 47
    25fc:	90 e0       	ldi	r25, 0x00	; 0
    25fe:	fc 01       	movw	r30, r24
    2600:	80 81       	ld	r24, Z

00002602 <.Loc.306>:
    2602:	88 2f       	mov	r24, r24
    2604:	90 e0       	ldi	r25, 0x00	; 0
    2606:	88 70       	andi	r24, 0x08	; 8
    2608:	99 27       	eor	r25, r25

0000260a <.Loc.307>:
    260a:	00 97       	sbiw	r24, 0x00	; 0
    260c:	09 f0       	breq	.+2      	; 0x2610 <.L210>

0000260e <L0^A>:
    260e:	7b c0       	rjmp	.+246    	; 0x2706 <.L212>

00002610 <.L210>:
    {
        boom_timer = time_current_ms(0);
    2610:	80 e0       	ldi	r24, 0x00	; 0
    2612:	90 e0       	ldi	r25, 0x00	; 0
    2614:	0e 94 ba 00 	call	0x174	; 0x174 <time_current_ms>
    2618:	4c 01       	movw	r8, r24
    261a:	89 2f       	mov	r24, r25
    261c:	88 0f       	add	r24, r24
    261e:	88 0b       	sbc	r24, r24
    2620:	a8 2e       	mov	r10, r24
    2622:	b8 2e       	mov	r11, r24
    2624:	c8 2e       	mov	r12, r24
    2626:	d8 2e       	mov	r13, r24
    2628:	e8 2e       	mov	r14, r24
    262a:	f8 2e       	mov	r15, r24

0000262c <.Loc.309>:
    262c:	80 92 18 02 	sts	0x0218, r8	; 0x800218 <boom_timer>
    2630:	90 92 19 02 	sts	0x0219, r9	; 0x800219 <boom_timer+0x1>
    2634:	a0 92 1a 02 	sts	0x021A, r10	; 0x80021a <boom_timer+0x2>
    2638:	b0 92 1b 02 	sts	0x021B, r11	; 0x80021b <boom_timer+0x3>
    263c:	c0 92 1c 02 	sts	0x021C, r12	; 0x80021c <boom_timer+0x4>
    2640:	d0 92 1d 02 	sts	0x021D, r13	; 0x80021d <boom_timer+0x5>
    2644:	e0 92 1e 02 	sts	0x021E, r14	; 0x80021e <boom_timer+0x6>
    2648:	f0 92 1f 02 	sts	0x021F, r15	; 0x80021f <boom_timer+0x7>

0000264c <.Loc.310>:
        if (time_current_ms(0) - boom_timer > 1500)
    264c:	80 e0       	ldi	r24, 0x00	; 0
    264e:	90 e0       	ldi	r25, 0x00	; 0
    2650:	0e 94 ba 00 	call	0x174	; 0x174 <time_current_ms>
    2654:	9a 83       	std	Y+2, r25	; 0x02
    2656:	89 83       	std	Y+1, r24	; 0x01
    2658:	89 2f       	mov	r24, r25
    265a:	88 0f       	add	r24, r24
    265c:	88 0b       	sbc	r24, r24
    265e:	8b 83       	std	Y+3, r24	; 0x03
    2660:	8c 83       	std	Y+4, r24	; 0x04
    2662:	8d 83       	std	Y+5, r24	; 0x05
    2664:	8e 83       	std	Y+6, r24	; 0x06
    2666:	8f 83       	std	Y+7, r24	; 0x07
    2668:	88 87       	std	Y+8, r24	; 0x08

0000266a <.Loc.311>:
    266a:	20 90 18 02 	lds	r2, 0x0218	; 0x800218 <boom_timer>
    266e:	30 90 19 02 	lds	r3, 0x0219	; 0x800219 <boom_timer+0x1>
    2672:	40 90 1a 02 	lds	r4, 0x021A	; 0x80021a <boom_timer+0x2>
    2676:	50 90 1b 02 	lds	r5, 0x021B	; 0x80021b <boom_timer+0x3>
    267a:	60 90 1c 02 	lds	r6, 0x021C	; 0x80021c <boom_timer+0x4>
    267e:	70 90 1d 02 	lds	r7, 0x021D	; 0x80021d <boom_timer+0x5>
    2682:	80 90 1e 02 	lds	r8, 0x021E	; 0x80021e <boom_timer+0x6>
    2686:	90 90 1f 02 	lds	r9, 0x021F	; 0x80021f <boom_timer+0x7>
    268a:	29 81       	ldd	r18, Y+1	; 0x01
    268c:	3a 81       	ldd	r19, Y+2	; 0x02
    268e:	4b 81       	ldd	r20, Y+3	; 0x03
    2690:	5c 81       	ldd	r21, Y+4	; 0x04
    2692:	6d 81       	ldd	r22, Y+5	; 0x05
    2694:	7e 81       	ldd	r23, Y+6	; 0x06
    2696:	8f 81       	ldd	r24, Y+7	; 0x07
    2698:	98 85       	ldd	r25, Y+8	; 0x08
    269a:	a2 2c       	mov	r10, r2
    269c:	b3 2c       	mov	r11, r3
    269e:	c4 2c       	mov	r12, r4
    26a0:	d5 2c       	mov	r13, r5
    26a2:	e6 2c       	mov	r14, r6
    26a4:	f7 2c       	mov	r15, r7
    26a6:	08 2d       	mov	r16, r8
    26a8:	19 2d       	mov	r17, r9
    26aa:	0e 94 d7 13 	call	0x27ae	; 0x27ae <__subdi3>
    26ae:	82 2e       	mov	r8, r18
    26b0:	93 2e       	mov	r9, r19
    26b2:	a4 2e       	mov	r10, r20
    26b4:	b5 2e       	mov	r11, r21
    26b6:	c6 2e       	mov	r12, r22
    26b8:	d7 2e       	mov	r13, r23
    26ba:	e8 2e       	mov	r14, r24
    26bc:	f9 2e       	mov	r15, r25

000026be <.Loc.312>:
    26be:	28 2d       	mov	r18, r8
    26c0:	39 2d       	mov	r19, r9
    26c2:	4a 2d       	mov	r20, r10
    26c4:	5b 2d       	mov	r21, r11
    26c6:	6c 2d       	mov	r22, r12
    26c8:	7d 2d       	mov	r23, r13
    26ca:	8e 2d       	mov	r24, r14
    26cc:	9f 2d       	mov	r25, r15
    26ce:	2c 3d       	cpi	r18, 0xDC	; 220
    26d0:	f5 e0       	ldi	r31, 0x05	; 5
    26d2:	3f 07       	cpc	r19, r31
    26d4:	41 05       	cpc	r20, r1
    26d6:	51 05       	cpc	r21, r1
    26d8:	61 05       	cpc	r22, r1
    26da:	71 05       	cpc	r23, r1
    26dc:	81 05       	cpc	r24, r1
    26de:	91 05       	cpc	r25, r1
    26e0:	91 f0       	breq	.+36     	; 0x2706 <.L212>
    26e2:	88 f0       	brcs	.+34     	; 0x2706 <.L212>

000026e4 <.LBB210>:
        {
            h_bridge_set_percentage_R(0);
    26e4:	80 e0       	ldi	r24, 0x00	; 0
    26e6:	90 e0       	ldi	r25, 0x00	; 0
    26e8:	0e 94 d9 03 	call	0x7b2	; 0x7b2 <h_bridge_set_percentage_R>

000026ec <.Loc.314>:
            h_bridge_set_percentage_L(0);
    26ec:	80 e0       	ldi	r24, 0x00	; 0
    26ee:	90 e0       	ldi	r25, 0x00	; 0
    26f0:	0e 94 72 02 	call	0x4e4	; 0x4e4 <h_bridge_set_percentage_L>

000026f4 <.Loc.315>:
            PORTB &= ~(1<<LED);
    26f4:	85 e2       	ldi	r24, 0x25	; 37
    26f6:	90 e0       	ldi	r25, 0x00	; 0
    26f8:	fc 01       	movw	r30, r24
    26fa:	20 81       	ld	r18, Z

000026fc <.Loc.316>:
    26fc:	85 e2       	ldi	r24, 0x25	; 37
    26fe:	90 e0       	ldi	r25, 0x00	; 0

00002700 <.Loc.317>:
    2700:	2d 7f       	andi	r18, 0xFD	; 253
    2702:	fc 01       	movw	r30, r24
    2704:	20 83       	st	Z, r18

00002706 <.L212>:
        }
    }
    //als ir sensor iets detecteert
        // alle motoren stoppen
        //led gaat aan
}
    2706:	00 00       	nop
    2708:	28 96       	adiw	r28, 0x08	; 8
    270a:	0f b6       	in	r0, 0x3f	; 63
    270c:	f8 94       	cli
    270e:	de bf       	out	0x3e, r29	; 62
    2710:	0f be       	out	0x3f, r0	; 63
    2712:	cd bf       	out	0x3d, r28	; 61
    2714:	df 91       	pop	r29
    2716:	cf 91       	pop	r28
    2718:	1f 91       	pop	r17
    271a:	0f 91       	pop	r16
    271c:	ff 90       	pop	r15
    271e:	ef 90       	pop	r14
    2720:	df 90       	pop	r13
    2722:	cf 90       	pop	r12
    2724:	bf 90       	pop	r11
    2726:	af 90       	pop	r10
    2728:	9f 90       	pop	r9
    272a:	8f 90       	pop	r8
    272c:	7f 90       	pop	r7
    272e:	6f 90       	pop	r6
    2730:	5f 90       	pop	r5
    2732:	4f 90       	pop	r4
    2734:	3f 90       	pop	r3
    2736:	2f 90       	pop	r2
    2738:	08 95       	ret

0000273a <obstakel_det>:

void obstakel_det ()
{
    273a:	cf 93       	push	r28
    273c:	df 93       	push	r29
    273e:	cd b7       	in	r28, 0x3d	; 61
    2740:	de b7       	in	r29, 0x3e	; 62

00002742 <.Loc.320>:
    //als distance us sensor_voor kleiner is dan 10 cm
        //motoren gaan uit
    //anders
        //motoren draaien door
}
    2742:	00 00       	nop
    2744:	df 91       	pop	r29
    2746:	cf 91       	pop	r28
    2748:	08 95       	ret

0000274a <main>:

int main(void)
{
    274a:	cf 93       	push	r28
    274c:	df 93       	push	r29
    274e:	cd b7       	in	r28, 0x3d	; 61
    2750:	de b7       	in	r29, 0x3e	; 62

00002752 <.Loc.322>:
    usr_loop();
    2752:	0e 94 49 09 	call	0x1292	; 0x1292 <usr_loop>

00002756 <.Loc.323>:
    usl_loop();
    2756:	0e 94 0a 0e 	call	0x1c14	; 0x1c14 <usl_loop>

0000275a <.Loc.324>:
    usv_loop();
    275a:	0e 94 80 04 	call	0x900	; 0x900 <usv_loop>

0000275e <.Loc.325>:
    us_setup();
    275e:	0e 94 42 04 	call	0x884	; 0x884 <us_setup>

00002762 <.Loc.326>:
    boom_det();
    2762:	0e 94 db 12 	call	0x25b6	; 0x25b6 <boom_det>

00002766 <.Loc.327>:
    LED_setup();
    2766:	0e 94 28 04 	call	0x850	; 0x850 <LED_setup>

0000276a <.L215>:

    while(1)
    276a:	00 00       	nop
    276c:	fe cf       	rjmp	.-4      	; 0x276a <.L215>

0000276e <__divmodhi4>:
    276e:	97 fb       	bst	r25, 7

00002770 <.Loc.1>:
    2770:	07 2e       	mov	r0, r23

00002772 <.Loc.2>:
    2772:	16 f4       	brtc	.+4      	; 0x2778 <.L^B1>

00002774 <.Loc.3>:
    2774:	00 94       	com	r0

00002776 <.Loc.4>:
    2776:	07 d0       	rcall	.+14     	; 0x2786 <__divmodhi4_neg1>

00002778 <.L^B1>:
    2778:	77 fd       	sbrc	r23, 7

0000277a <.Loc.6>:
    277a:	09 d0       	rcall	.+18     	; 0x278e <__divmodhi4_neg2>

0000277c <.Loc.7>:
    277c:	0e 94 e0 13 	call	0x27c0	; 0x27c0 <__udivmodhi4>

00002780 <.Loc.8>:
    2780:	07 fc       	sbrc	r0, 7

00002782 <.Loc.9>:
    2782:	05 d0       	rcall	.+10     	; 0x278e <__divmodhi4_neg2>

00002784 <.Loc.10>:
    2784:	3e f4       	brtc	.+14     	; 0x2794 <__divmodhi4_exit>

00002786 <__divmodhi4_neg1>:
    2786:	90 95       	com	r25

00002788 <.Loc.12>:
    2788:	81 95       	neg	r24

0000278a <.Loc.13>:
    278a:	9f 4f       	sbci	r25, 0xFF	; 255

0000278c <.Loc.14>:
    278c:	08 95       	ret

0000278e <__divmodhi4_neg2>:
    278e:	70 95       	com	r23

00002790 <.Loc.16>:
    2790:	61 95       	neg	r22

00002792 <.Loc.17>:
    2792:	7f 4f       	sbci	r23, 0xFF	; 255

00002794 <__divmodhi4_exit>:
    2794:	08 95       	ret

00002796 <__adddi3_s8>:
    2796:	00 24       	eor	r0, r0

00002798 <.Loc.1>:
    2798:	a7 fd       	sbrc	r26, 7

0000279a <.Loc.2>:
    279a:	00 94       	com	r0

0000279c <.Loc.3>:
    279c:	2a 0f       	add	r18, r26
    279e:	30 1d       	adc	r19, r0
    27a0:	40 1d       	adc	r20, r0
    27a2:	50 1d       	adc	r21, r0

000027a4 <.Loc.4>:
    27a4:	60 1d       	adc	r22, r0
    27a6:	70 1d       	adc	r23, r0
    27a8:	80 1d       	adc	r24, r0
    27aa:	90 1d       	adc	r25, r0

000027ac <.Loc.5>:
    27ac:	08 95       	ret

000027ae <__subdi3>:
    27ae:	2a 19       	sub	r18, r10
    27b0:	3b 09       	sbc	r19, r11
    27b2:	4c 09       	sbc	r20, r12
    27b4:	5d 09       	sbc	r21, r13

000027b6 <.Loc.1>:
    27b6:	6e 09       	sbc	r22, r14
    27b8:	7f 09       	sbc	r23, r15
    27ba:	80 0b       	sbc	r24, r16
    27bc:	91 0b       	sbc	r25, r17

000027be <.Loc.2>:
    27be:	08 95       	ret

000027c0 <__udivmodhi4>:
    27c0:	aa 1b       	sub	r26, r26

000027c2 <.Loc.1>:
    27c2:	bb 1b       	sub	r27, r27

000027c4 <.Loc.2>:
    27c4:	51 e1       	ldi	r21, 0x11	; 17

000027c6 <.Loc.3>:
    27c6:	07 c0       	rjmp	.+14     	; 0x27d6 <__udivmodhi4_ep>

000027c8 <__udivmodhi4_loop>:
    27c8:	aa 1f       	adc	r26, r26

000027ca <.Loc.5>:
    27ca:	bb 1f       	adc	r27, r27

000027cc <.Loc.6>:
    27cc:	a6 17       	cp	r26, r22

000027ce <.Loc.7>:
    27ce:	b7 07       	cpc	r27, r23

000027d0 <.Loc.8>:
    27d0:	10 f0       	brcs	.+4      	; 0x27d6 <__udivmodhi4_ep>

000027d2 <.Loc.9>:
    27d2:	a6 1b       	sub	r26, r22

000027d4 <.Loc.10>:
    27d4:	b7 0b       	sbc	r27, r23

000027d6 <__udivmodhi4_ep>:
    27d6:	88 1f       	adc	r24, r24

000027d8 <.Loc.12>:
    27d8:	99 1f       	adc	r25, r25

000027da <.Loc.13>:
    27da:	5a 95       	dec	r21

000027dc <.Loc.14>:
    27dc:	a9 f7       	brne	.-22     	; 0x27c8 <__udivmodhi4_loop>

000027de <.Loc.15>:
    27de:	80 95       	com	r24

000027e0 <.Loc.16>:
    27e0:	90 95       	com	r25

000027e2 <.Loc.17>:
    27e2:	bc 01       	movw	r22, r24

000027e4 <.Loc.18>:
    27e4:	cd 01       	movw	r24, r26

000027e6 <.Loc.19>:
    27e6:	08 95       	ret

000027e8 <__cmpsf2>:
    27e8:	0e 94 de 14 	call	0x29bc	; 0x29bc <__fp_cmp>
    27ec:	08 f4       	brcc	.+2      	; 0x27f0 <.L1^B1>
    27ee:	81 e0       	ldi	r24, 0x01	; 1

000027f0 <.L1^B1>:
    27f0:	08 95       	ret

000027f2 <__divsf3>:
    27f2:	0e 94 0d 14 	call	0x281a	; 0x281a <__divsf3x>
    27f6:	0c 94 19 15 	jmp	0x2a32	; 0x2a32 <__fp_round>

000027fa <.L^B1>:
    27fa:	0e 94 12 15 	call	0x2a24	; 0x2a24 <__fp_pscB>
    27fe:	58 f0       	brcs	.+22     	; 0x2816 <.L_nan>
    2800:	0e 94 0b 15 	call	0x2a16	; 0x2a16 <__fp_pscA>
    2804:	40 f0       	brcs	.+16     	; 0x2816 <.L_nan>
    2806:	29 f4       	brne	.+10     	; 0x2812 <.L_zr>
    2808:	5f 3f       	cpi	r21, 0xFF	; 255
    280a:	29 f0       	breq	.+10     	; 0x2816 <.L_nan>

0000280c <.L_inf>:
    280c:	0c 94 02 15 	jmp	0x2a04	; 0x2a04 <__fp_inf>

00002810 <.L1^B1>:
    2810:	51 11       	cpse	r21, r1

00002812 <.L_zr>:
    2812:	0c 94 4d 15 	jmp	0x2a9a	; 0x2a9a <__fp_szero>

00002816 <.L_nan>:
    2816:	0c 94 08 15 	jmp	0x2a10	; 0x2a10 <__fp_nan>

0000281a <__divsf3x>:
    281a:	0e 94 2a 15 	call	0x2a54	; 0x2a54 <__fp_split3>
    281e:	68 f3       	brcs	.-38     	; 0x27fa <.L^B1>

00002820 <__divsf3_pse>:
    2820:	99 23       	and	r25, r25
    2822:	b1 f3       	breq	.-20     	; 0x2810 <.L1^B1>
    2824:	55 23       	and	r21, r21
    2826:	91 f3       	breq	.-28     	; 0x280c <.L_inf>
    2828:	95 1b       	sub	r25, r21
    282a:	55 0b       	sbc	r21, r21
    282c:	bb 27       	eor	r27, r27
    282e:	aa 27       	eor	r26, r26

00002830 <.L2^B1>:
    2830:	62 17       	cp	r22, r18
    2832:	73 07       	cpc	r23, r19
    2834:	84 07       	cpc	r24, r20
    2836:	38 f0       	brcs	.+14     	; 0x2846 <.L3^B1>
    2838:	9f 5f       	subi	r25, 0xFF	; 255
    283a:	5f 4f       	sbci	r21, 0xFF	; 255
    283c:	22 0f       	add	r18, r18
    283e:	33 1f       	adc	r19, r19
    2840:	44 1f       	adc	r20, r20
    2842:	aa 1f       	adc	r26, r26
    2844:	a9 f3       	breq	.-22     	; 0x2830 <.L2^B1>

00002846 <.L3^B1>:
    2846:	35 d0       	rcall	.+106    	; 0x28b2 <.L_div>
    2848:	0e 2e       	mov	r0, r30
    284a:	3a f0       	brmi	.+14     	; 0x285a <.L5^B1>

0000284c <.L4^B1>:
    284c:	e0 e8       	ldi	r30, 0x80	; 128
    284e:	32 d0       	rcall	.+100    	; 0x28b4 <.L_div1>
    2850:	91 50       	subi	r25, 0x01	; 1
    2852:	50 40       	sbci	r21, 0x00	; 0
    2854:	e6 95       	lsr	r30
    2856:	00 1c       	adc	r0, r0
    2858:	ca f7       	brpl	.-14     	; 0x284c <.L4^B1>

0000285a <.L5^B1>:
    285a:	2b d0       	rcall	.+86     	; 0x28b2 <.L_div>
    285c:	fe 2f       	mov	r31, r30
    285e:	29 d0       	rcall	.+82     	; 0x28b2 <.L_div>
    2860:	66 0f       	add	r22, r22
    2862:	77 1f       	adc	r23, r23
    2864:	88 1f       	adc	r24, r24
    2866:	bb 1f       	adc	r27, r27
    2868:	26 17       	cp	r18, r22
    286a:	37 07       	cpc	r19, r23
    286c:	48 07       	cpc	r20, r24
    286e:	ab 07       	cpc	r26, r27
    2870:	b0 e8       	ldi	r27, 0x80	; 128
    2872:	09 f0       	breq	.+2      	; 0x2876 <.L4^B2>
    2874:	bb 0b       	sbc	r27, r27

00002876 <.L4^B2>:
    2876:	80 2d       	mov	r24, r0
    2878:	bf 01       	movw	r22, r30
    287a:	ff 27       	eor	r31, r31
    287c:	93 58       	subi	r25, 0x83	; 131
    287e:	5f 4f       	sbci	r21, 0xFF	; 255
    2880:	3a f0       	brmi	.+14     	; 0x2890 <.L13^B1>
    2882:	9e 3f       	cpi	r25, 0xFE	; 254
    2884:	51 05       	cpc	r21, r1
    2886:	78 f0       	brcs	.+30     	; 0x28a6 <.L15^B1>
    2888:	0c 94 02 15 	jmp	0x2a04	; 0x2a04 <__fp_inf>

0000288c <.L12^B1>:
    288c:	0c 94 4d 15 	jmp	0x2a9a	; 0x2a9a <__fp_szero>

00002890 <.L13^B1>:
    2890:	5f 3f       	cpi	r21, 0xFF	; 255
    2892:	e4 f3       	brlt	.-8      	; 0x288c <.L12^B1>
    2894:	98 3e       	cpi	r25, 0xE8	; 232
    2896:	d4 f3       	brlt	.-12     	; 0x288c <.L12^B1>

00002898 <.L14^B1>:
    2898:	86 95       	lsr	r24
    289a:	77 95       	ror	r23
    289c:	67 95       	ror	r22
    289e:	b7 95       	ror	r27
    28a0:	f7 95       	ror	r31
    28a2:	9f 5f       	subi	r25, 0xFF	; 255
    28a4:	c9 f7       	brne	.-14     	; 0x2898 <.L14^B1>

000028a6 <.L15^B1>:
    28a6:	88 0f       	add	r24, r24
    28a8:	91 1d       	adc	r25, r1
    28aa:	96 95       	lsr	r25
    28ac:	87 95       	ror	r24
    28ae:	97 f9       	bld	r25, 7
    28b0:	08 95       	ret

000028b2 <.L_div>:
    28b2:	e1 e0       	ldi	r30, 0x01	; 1

000028b4 <.L_div1>:
    28b4:	66 0f       	add	r22, r22
    28b6:	77 1f       	adc	r23, r23
    28b8:	88 1f       	adc	r24, r24
    28ba:	bb 1f       	adc	r27, r27
    28bc:	62 17       	cp	r22, r18
    28be:	73 07       	cpc	r23, r19
    28c0:	84 07       	cpc	r24, r20
    28c2:	ba 07       	cpc	r27, r26
    28c4:	20 f0       	brcs	.+8      	; 0x28ce <.L2^B2>
    28c6:	62 1b       	sub	r22, r18
    28c8:	73 0b       	sbc	r23, r19
    28ca:	84 0b       	sbc	r24, r20
    28cc:	ba 0b       	sbc	r27, r26

000028ce <.L2^B2>:
    28ce:	ee 1f       	adc	r30, r30
    28d0:	88 f7       	brcc	.-30     	; 0x28b4 <.L_div1>
    28d2:	e0 95       	com	r30
    28d4:	08 95       	ret

000028d6 <__fixsfsi>:
    28d6:	0e 94 72 14 	call	0x28e4	; 0x28e4 <__fixunssfsi>
    28da:	68 94       	set
    28dc:	b1 11       	cpse	r27, r1
    28de:	0c 94 4d 15 	jmp	0x2a9a	; 0x2a9a <__fp_szero>
    28e2:	08 95       	ret

000028e4 <__fixunssfsi>:
    28e4:	0e 94 32 15 	call	0x2a64	; 0x2a64 <__fp_splitA>
    28e8:	88 f0       	brcs	.+34     	; 0x290c <.L_err>
    28ea:	9f 57       	subi	r25, 0x7F	; 127
    28ec:	98 f0       	brcs	.+38     	; 0x2914 <.L_zr>
    28ee:	b9 2f       	mov	r27, r25
    28f0:	99 27       	eor	r25, r25
    28f2:	b7 51       	subi	r27, 0x17	; 23
    28f4:	b0 f0       	brcs	.+44     	; 0x2922 <.L4^B1>
    28f6:	e1 f0       	breq	.+56     	; 0x2930 <.L_sign>

000028f8 <.L1^B1>:
    28f8:	66 0f       	add	r22, r22
    28fa:	77 1f       	adc	r23, r23
    28fc:	88 1f       	adc	r24, r24
    28fe:	99 1f       	adc	r25, r25
    2900:	1a f0       	brmi	.+6      	; 0x2908 <.L2^B1>
    2902:	ba 95       	dec	r27
    2904:	c9 f7       	brne	.-14     	; 0x28f8 <.L1^B1>
    2906:	14 c0       	rjmp	.+40     	; 0x2930 <.L_sign>

00002908 <.L2^B1>:
    2908:	b1 30       	cpi	r27, 0x01	; 1
    290a:	91 f0       	breq	.+36     	; 0x2930 <.L_sign>

0000290c <.L_err>:
    290c:	0e 94 4c 15 	call	0x2a98	; 0x2a98 <__fp_zero>
    2910:	b1 e0       	ldi	r27, 0x01	; 1
    2912:	08 95       	ret

00002914 <.L_zr>:
    2914:	0c 94 4c 15 	jmp	0x2a98	; 0x2a98 <__fp_zero>

00002918 <.L3^B1>:
    2918:	67 2f       	mov	r22, r23
    291a:	78 2f       	mov	r23, r24
    291c:	88 27       	eor	r24, r24
    291e:	b8 5f       	subi	r27, 0xF8	; 248
    2920:	39 f0       	breq	.+14     	; 0x2930 <.L_sign>

00002922 <.L4^B1>:
    2922:	b9 3f       	cpi	r27, 0xF9	; 249
    2924:	cc f3       	brlt	.-14     	; 0x2918 <.L3^B1>

00002926 <.L5^B1>:
    2926:	86 95       	lsr	r24
    2928:	77 95       	ror	r23
    292a:	67 95       	ror	r22
    292c:	b3 95       	inc	r27
    292e:	d9 f7       	brne	.-10     	; 0x2926 <.L5^B1>

00002930 <.L_sign>:
    2930:	3e f4       	brtc	.+14     	; 0x2940 <.L6^B1>
    2932:	90 95       	com	r25
    2934:	80 95       	com	r24
    2936:	70 95       	com	r23
    2938:	61 95       	neg	r22
    293a:	7f 4f       	sbci	r23, 0xFF	; 255
    293c:	8f 4f       	sbci	r24, 0xFF	; 255
    293e:	9f 4f       	sbci	r25, 0xFF	; 255

00002940 <.L6^B1>:
    2940:	08 95       	ret

00002942 <__floatunsisf>:
    2942:	e8 94       	clt
    2944:	09 c0       	rjmp	.+18     	; 0x2958 <.L1^B1>

00002946 <__floatsisf>:
    2946:	97 fb       	bst	r25, 7
    2948:	3e f4       	brtc	.+14     	; 0x2958 <.L1^B1>
    294a:	90 95       	com	r25
    294c:	80 95       	com	r24
    294e:	70 95       	com	r23
    2950:	61 95       	neg	r22
    2952:	7f 4f       	sbci	r23, 0xFF	; 255
    2954:	8f 4f       	sbci	r24, 0xFF	; 255
    2956:	9f 4f       	sbci	r25, 0xFF	; 255

00002958 <.L1^B1>:
    2958:	99 23       	and	r25, r25
    295a:	a9 f0       	breq	.+42     	; 0x2986 <.L4^B1>
    295c:	f9 2f       	mov	r31, r25
    295e:	96 e9       	ldi	r25, 0x96	; 150
    2960:	bb 27       	eor	r27, r27

00002962 <.L2^B1>:
    2962:	93 95       	inc	r25
    2964:	f6 95       	lsr	r31
    2966:	87 95       	ror	r24
    2968:	77 95       	ror	r23
    296a:	67 95       	ror	r22
    296c:	b7 95       	ror	r27
    296e:	f1 11       	cpse	r31, r1
    2970:	f8 cf       	rjmp	.-16     	; 0x2962 <.L2^B1>
    2972:	fa f4       	brpl	.+62     	; 0x29b2 <.L_pack>
    2974:	bb 0f       	add	r27, r27
    2976:	11 f4       	brne	.+4      	; 0x297c <.L3^B1>
    2978:	60 ff       	sbrs	r22, 0
    297a:	1b c0       	rjmp	.+54     	; 0x29b2 <.L_pack>

0000297c <.L3^B1>:
    297c:	6f 5f       	subi	r22, 0xFF	; 255
    297e:	7f 4f       	sbci	r23, 0xFF	; 255
    2980:	8f 4f       	sbci	r24, 0xFF	; 255
    2982:	9f 4f       	sbci	r25, 0xFF	; 255
    2984:	16 c0       	rjmp	.+44     	; 0x29b2 <.L_pack>

00002986 <.L4^B1>:
    2986:	88 23       	and	r24, r24
    2988:	11 f0       	breq	.+4      	; 0x298e <.L5^B1>
    298a:	96 e9       	ldi	r25, 0x96	; 150
    298c:	11 c0       	rjmp	.+34     	; 0x29b0 <.L8^B1>

0000298e <.L5^B1>:
    298e:	77 23       	and	r23, r23
    2990:	21 f0       	breq	.+8      	; 0x299a <.L6^B1>
    2992:	9e e8       	ldi	r25, 0x8E	; 142
    2994:	87 2f       	mov	r24, r23
    2996:	76 2f       	mov	r23, r22
    2998:	05 c0       	rjmp	.+10     	; 0x29a4 <.L7^B1>

0000299a <.L6^B1>:
    299a:	66 23       	and	r22, r22
    299c:	71 f0       	breq	.+28     	; 0x29ba <.L9^B1>
    299e:	96 e8       	ldi	r25, 0x86	; 134
    29a0:	86 2f       	mov	r24, r22
    29a2:	70 e0       	ldi	r23, 0x00	; 0

000029a4 <.L7^B1>:
    29a4:	60 e0       	ldi	r22, 0x00	; 0
    29a6:	2a f0       	brmi	.+10     	; 0x29b2 <.L_pack>

000029a8 <.L10^B1>:
    29a8:	9a 95       	dec	r25
    29aa:	66 0f       	add	r22, r22
    29ac:	77 1f       	adc	r23, r23
    29ae:	88 1f       	adc	r24, r24

000029b0 <.L8^B1>:
    29b0:	da f7       	brpl	.-10     	; 0x29a8 <.L10^B1>

000029b2 <.L_pack>:
    29b2:	88 0f       	add	r24, r24
    29b4:	96 95       	lsr	r25
    29b6:	87 95       	ror	r24
    29b8:	97 f9       	bld	r25, 7

000029ba <.L9^B1>:
    29ba:	08 95       	ret

000029bc <__fp_cmp>:
    29bc:	99 0f       	add	r25, r25
    29be:	00 08       	sbc	r0, r0
    29c0:	55 0f       	add	r21, r21
    29c2:	aa 0b       	sbc	r26, r26
    29c4:	e0 e8       	ldi	r30, 0x80	; 128
    29c6:	fe ef       	ldi	r31, 0xFE	; 254
    29c8:	16 16       	cp	r1, r22
    29ca:	17 06       	cpc	r1, r23
    29cc:	e8 07       	cpc	r30, r24
    29ce:	f9 07       	cpc	r31, r25
    29d0:	c0 f0       	brcs	.+48     	; 0x2a02 <.L9^B1>
    29d2:	12 16       	cp	r1, r18
    29d4:	13 06       	cpc	r1, r19
    29d6:	e4 07       	cpc	r30, r20
    29d8:	f5 07       	cpc	r31, r21
    29da:	98 f0       	brcs	.+38     	; 0x2a02 <.L9^B1>
    29dc:	62 1b       	sub	r22, r18
    29de:	73 0b       	sbc	r23, r19
    29e0:	84 0b       	sbc	r24, r20
    29e2:	95 0b       	sbc	r25, r21
    29e4:	39 f4       	brne	.+14     	; 0x29f4 <.L1^B1>
    29e6:	0a 26       	eor	r0, r26
    29e8:	61 f0       	breq	.+24     	; 0x2a02 <.L9^B1>
    29ea:	23 2b       	or	r18, r19
    29ec:	24 2b       	or	r18, r20
    29ee:	25 2b       	or	r18, r21
    29f0:	21 f4       	brne	.+8      	; 0x29fa <.L2^B1>
    29f2:	08 95       	ret

000029f4 <.L1^B1>:
    29f4:	0a 26       	eor	r0, r26
    29f6:	09 f4       	brne	.+2      	; 0x29fa <.L2^B1>
    29f8:	a1 40       	sbci	r26, 0x01	; 1

000029fa <.L2^B1>:
    29fa:	a6 95       	lsr	r26
    29fc:	8f ef       	ldi	r24, 0xFF	; 255
    29fe:	81 1d       	adc	r24, r1
    2a00:	81 1d       	adc	r24, r1

00002a02 <.L9^B1>:
    2a02:	08 95       	ret

00002a04 <__fp_inf>:
    2a04:	97 f9       	bld	r25, 7
    2a06:	9f 67       	ori	r25, 0x7F	; 127
    2a08:	80 e8       	ldi	r24, 0x80	; 128
    2a0a:	70 e0       	ldi	r23, 0x00	; 0
    2a0c:	60 e0       	ldi	r22, 0x00	; 0
    2a0e:	08 95       	ret

00002a10 <__fp_nan>:
    2a10:	9f ef       	ldi	r25, 0xFF	; 255
    2a12:	80 ec       	ldi	r24, 0xC0	; 192
    2a14:	08 95       	ret

00002a16 <__fp_pscA>:
    2a16:	00 24       	eor	r0, r0
    2a18:	0a 94       	dec	r0
    2a1a:	16 16       	cp	r1, r22
    2a1c:	17 06       	cpc	r1, r23
    2a1e:	18 06       	cpc	r1, r24
    2a20:	09 06       	cpc	r0, r25
    2a22:	08 95       	ret

00002a24 <__fp_pscB>:
    2a24:	00 24       	eor	r0, r0
    2a26:	0a 94       	dec	r0
    2a28:	12 16       	cp	r1, r18
    2a2a:	13 06       	cpc	r1, r19
    2a2c:	14 06       	cpc	r1, r20
    2a2e:	05 06       	cpc	r0, r21
    2a30:	08 95       	ret

00002a32 <__fp_round>:
    2a32:	09 2e       	mov	r0, r25
    2a34:	03 94       	inc	r0
    2a36:	00 0c       	add	r0, r0
    2a38:	11 f4       	brne	.+4      	; 0x2a3e <.L1^B1>
    2a3a:	88 23       	and	r24, r24
    2a3c:	52 f0       	brmi	.+20     	; 0x2a52 <.L3^B1>

00002a3e <.L1^B1>:
    2a3e:	bb 0f       	add	r27, r27
    2a40:	40 f4       	brcc	.+16     	; 0x2a52 <.L3^B1>
    2a42:	bf 2b       	or	r27, r31
    2a44:	11 f4       	brne	.+4      	; 0x2a4a <.L2^B1>
    2a46:	60 ff       	sbrs	r22, 0
    2a48:	04 c0       	rjmp	.+8      	; 0x2a52 <.L3^B1>

00002a4a <.L2^B1>:
    2a4a:	6f 5f       	subi	r22, 0xFF	; 255
    2a4c:	7f 4f       	sbci	r23, 0xFF	; 255
    2a4e:	8f 4f       	sbci	r24, 0xFF	; 255
    2a50:	9f 4f       	sbci	r25, 0xFF	; 255

00002a52 <.L3^B1>:
    2a52:	08 95       	ret

00002a54 <__fp_split3>:
    2a54:	57 fd       	sbrc	r21, 7
    2a56:	90 58       	subi	r25, 0x80	; 128
    2a58:	44 0f       	add	r20, r20
    2a5a:	55 1f       	adc	r21, r21
    2a5c:	59 f0       	breq	.+22     	; 0x2a74 <.L4^B1>
    2a5e:	5f 3f       	cpi	r21, 0xFF	; 255
    2a60:	71 f0       	breq	.+28     	; 0x2a7e <.L5^B1>

00002a62 <.L1^B1>:
    2a62:	47 95       	ror	r20

00002a64 <__fp_splitA>:
    2a64:	88 0f       	add	r24, r24
    2a66:	97 fb       	bst	r25, 7
    2a68:	99 1f       	adc	r25, r25
    2a6a:	61 f0       	breq	.+24     	; 0x2a84 <.L6^B1>
    2a6c:	9f 3f       	cpi	r25, 0xFF	; 255
    2a6e:	79 f0       	breq	.+30     	; 0x2a8e <.L7^B1>

00002a70 <.L3^B1>:
    2a70:	87 95       	ror	r24
    2a72:	08 95       	ret

00002a74 <.L4^B1>:
    2a74:	12 16       	cp	r1, r18
    2a76:	13 06       	cpc	r1, r19
    2a78:	14 06       	cpc	r1, r20
    2a7a:	55 1f       	adc	r21, r21
    2a7c:	f2 cf       	rjmp	.-28     	; 0x2a62 <.L1^B1>

00002a7e <.L5^B1>:
    2a7e:	46 95       	lsr	r20
    2a80:	f1 df       	rcall	.-30     	; 0x2a64 <__fp_splitA>
    2a82:	08 c0       	rjmp	.+16     	; 0x2a94 <.L8^B1>

00002a84 <.L6^B1>:
    2a84:	16 16       	cp	r1, r22
    2a86:	17 06       	cpc	r1, r23
    2a88:	18 06       	cpc	r1, r24
    2a8a:	99 1f       	adc	r25, r25
    2a8c:	f1 cf       	rjmp	.-30     	; 0x2a70 <.L3^B1>

00002a8e <.L7^B1>:
    2a8e:	86 95       	lsr	r24
    2a90:	71 05       	cpc	r23, r1
    2a92:	61 05       	cpc	r22, r1

00002a94 <.L8^B1>:
    2a94:	08 94       	sec
    2a96:	08 95       	ret

00002a98 <__fp_zero>:
    2a98:	e8 94       	clt

00002a9a <__fp_szero>:
    2a9a:	bb 27       	eor	r27, r27
    2a9c:	66 27       	eor	r22, r22
    2a9e:	77 27       	eor	r23, r23
    2aa0:	cb 01       	movw	r24, r22
    2aa2:	97 f9       	bld	r25, 7
    2aa4:	08 95       	ret

00002aa6 <__gesf2>:
    2aa6:	0e 94 de 14 	call	0x29bc	; 0x29bc <__fp_cmp>
    2aaa:	08 f4       	brcc	.+2      	; 0x2aae <.L1^B1>
    2aac:	8f ef       	ldi	r24, 0xFF	; 255

00002aae <.L1^B1>:
    2aae:	08 95       	ret

00002ab0 <__mulsf3>:
    2ab0:	0e 94 6b 15 	call	0x2ad6	; 0x2ad6 <__mulsf3x>
    2ab4:	0c 94 19 15 	jmp	0x2a32	; 0x2a32 <__fp_round>

00002ab8 <.L^B1>:
    2ab8:	0e 94 0b 15 	call	0x2a16	; 0x2a16 <__fp_pscA>
    2abc:	38 f0       	brcs	.+14     	; 0x2acc <.L1^B1>
    2abe:	0e 94 12 15 	call	0x2a24	; 0x2a24 <__fp_pscB>
    2ac2:	20 f0       	brcs	.+8      	; 0x2acc <.L1^B1>
    2ac4:	95 23       	and	r25, r21
    2ac6:	11 f0       	breq	.+4      	; 0x2acc <.L1^B1>
    2ac8:	0c 94 02 15 	jmp	0x2a04	; 0x2a04 <__fp_inf>

00002acc <.L1^B1>:
    2acc:	0c 94 08 15 	jmp	0x2a10	; 0x2a10 <__fp_nan>

00002ad0 <.L2^B1>:
    2ad0:	11 24       	eor	r1, r1
    2ad2:	0c 94 4d 15 	jmp	0x2a9a	; 0x2a9a <__fp_szero>

00002ad6 <__mulsf3x>:
    2ad6:	0e 94 2a 15 	call	0x2a54	; 0x2a54 <__fp_split3>
    2ada:	70 f3       	brcs	.-36     	; 0x2ab8 <.L^B1>

00002adc <__mulsf3_pse>:
    2adc:	95 9f       	mul	r25, r21
    2ade:	c1 f3       	breq	.-16     	; 0x2ad0 <.L2^B1>
    2ae0:	95 0f       	add	r25, r21
    2ae2:	50 e0       	ldi	r21, 0x00	; 0
    2ae4:	55 1f       	adc	r21, r21
    2ae6:	62 9f       	mul	r22, r18
    2ae8:	f0 01       	movw	r30, r0
    2aea:	72 9f       	mul	r23, r18
    2aec:	bb 27       	eor	r27, r27
    2aee:	f0 0d       	add	r31, r0
    2af0:	b1 1d       	adc	r27, r1
    2af2:	63 9f       	mul	r22, r19
    2af4:	aa 27       	eor	r26, r26
    2af6:	f0 0d       	add	r31, r0
    2af8:	b1 1d       	adc	r27, r1
    2afa:	aa 1f       	adc	r26, r26
    2afc:	64 9f       	mul	r22, r20
    2afe:	66 27       	eor	r22, r22
    2b00:	b0 0d       	add	r27, r0
    2b02:	a1 1d       	adc	r26, r1
    2b04:	66 1f       	adc	r22, r22
    2b06:	82 9f       	mul	r24, r18
    2b08:	22 27       	eor	r18, r18
    2b0a:	b0 0d       	add	r27, r0
    2b0c:	a1 1d       	adc	r26, r1
    2b0e:	62 1f       	adc	r22, r18
    2b10:	73 9f       	mul	r23, r19
    2b12:	b0 0d       	add	r27, r0
    2b14:	a1 1d       	adc	r26, r1
    2b16:	62 1f       	adc	r22, r18
    2b18:	83 9f       	mul	r24, r19
    2b1a:	a0 0d       	add	r26, r0
    2b1c:	61 1d       	adc	r22, r1
    2b1e:	22 1f       	adc	r18, r18
    2b20:	74 9f       	mul	r23, r20
    2b22:	33 27       	eor	r19, r19
    2b24:	a0 0d       	add	r26, r0
    2b26:	61 1d       	adc	r22, r1
    2b28:	23 1f       	adc	r18, r19
    2b2a:	84 9f       	mul	r24, r20
    2b2c:	60 0d       	add	r22, r0
    2b2e:	21 1d       	adc	r18, r1
    2b30:	82 2f       	mov	r24, r18
    2b32:	76 2f       	mov	r23, r22
    2b34:	6a 2f       	mov	r22, r26
    2b36:	11 24       	eor	r1, r1
    2b38:	9f 57       	subi	r25, 0x7F	; 127
    2b3a:	50 40       	sbci	r21, 0x00	; 0
    2b3c:	9a f0       	brmi	.+38     	; 0x2b64 <.L13^B1>
    2b3e:	f1 f0       	breq	.+60     	; 0x2b7c <.L15^B1>

00002b40 <.L10^B1>:
    2b40:	88 23       	and	r24, r24
    2b42:	4a f0       	brmi	.+18     	; 0x2b56 <.L11^B1>
    2b44:	ee 0f       	add	r30, r30
    2b46:	ff 1f       	adc	r31, r31
    2b48:	bb 1f       	adc	r27, r27
    2b4a:	66 1f       	adc	r22, r22
    2b4c:	77 1f       	adc	r23, r23
    2b4e:	88 1f       	adc	r24, r24
    2b50:	91 50       	subi	r25, 0x01	; 1
    2b52:	50 40       	sbci	r21, 0x00	; 0
    2b54:	a9 f7       	brne	.-22     	; 0x2b40 <.L10^B1>

00002b56 <.L11^B1>:
    2b56:	9e 3f       	cpi	r25, 0xFE	; 254
    2b58:	51 05       	cpc	r21, r1
    2b5a:	80 f0       	brcs	.+32     	; 0x2b7c <.L15^B1>
    2b5c:	0c 94 02 15 	jmp	0x2a04	; 0x2a04 <__fp_inf>

00002b60 <.L12^B1>:
    2b60:	0c 94 4d 15 	jmp	0x2a9a	; 0x2a9a <__fp_szero>

00002b64 <.L13^B1>:
    2b64:	5f 3f       	cpi	r21, 0xFF	; 255
    2b66:	e4 f3       	brlt	.-8      	; 0x2b60 <.L12^B1>
    2b68:	98 3e       	cpi	r25, 0xE8	; 232
    2b6a:	d4 f3       	brlt	.-12     	; 0x2b60 <.L12^B1>

00002b6c <.L14^B1>:
    2b6c:	86 95       	lsr	r24
    2b6e:	77 95       	ror	r23
    2b70:	67 95       	ror	r22
    2b72:	b7 95       	ror	r27
    2b74:	f7 95       	ror	r31
    2b76:	e7 95       	ror	r30
    2b78:	9f 5f       	subi	r25, 0xFF	; 255
    2b7a:	c1 f7       	brne	.-16     	; 0x2b6c <.L14^B1>

00002b7c <.L15^B1>:
    2b7c:	fe 2b       	or	r31, r30
    2b7e:	88 0f       	add	r24, r24
    2b80:	91 1d       	adc	r25, r1
    2b82:	96 95       	lsr	r25
    2b84:	87 95       	ror	r24
    2b86:	97 f9       	bld	r25, 7
    2b88:	08 95       	ret

00002b8a <_exit>:
    2b8a:	f8 94       	cli

00002b8c <__stop_program>:
    2b8c:	ff cf       	rjmp	.-2      	; 0x2b8c <__stop_program>
